Archive member included to satisfy reference by file (symbol)

/usr/lib/gcc/arm-none-eabi/13.2.1/../../../arm-none-eabi/lib/thumb/v7e-m+fp/hard/libc.a(libc_a-memset.o)
                              /usr/lib/gcc/arm-none-eabi/13.2.1/../../../arm-none-eabi/lib/thumb/v7e-m+fp/hard/crt0.o (memset)
/usr/lib/gcc/arm-none-eabi/13.2.1/../../../arm-none-eabi/lib/thumb/v7e-m+fp/hard/libc.a(libc_a-init.o)
                              /usr/lib/gcc/arm-none-eabi/13.2.1/../../../arm-none-eabi/lib/thumb/v7e-m+fp/hard/crt0.o (__libc_init_array)
/usr/lib/gcc/arm-none-eabi/13.2.1/../../../arm-none-eabi/lib/thumb/v7e-m+fp/hard/libc.a(libc_a-exit.o)
                              /usr/lib/gcc/arm-none-eabi/13.2.1/../../../arm-none-eabi/lib/thumb/v7e-m+fp/hard/crt0.o (exit)
/usr/lib/gcc/arm-none-eabi/13.2.1/../../../arm-none-eabi/lib/thumb/v7e-m+fp/hard/libc.a(libc_a-atexit.o)
                              /usr/lib/gcc/arm-none-eabi/13.2.1/../../../arm-none-eabi/lib/thumb/v7e-m+fp/hard/crt0.o (atexit)
/usr/lib/gcc/arm-none-eabi/13.2.1/../../../arm-none-eabi/lib/thumb/v7e-m+fp/hard/libc.a(libc_a-fini.o)
                              /usr/lib/gcc/arm-none-eabi/13.2.1/../../../arm-none-eabi/lib/thumb/v7e-m+fp/hard/crt0.o (__libc_fini_array)
/usr/lib/gcc/arm-none-eabi/13.2.1/../../../arm-none-eabi/lib/thumb/v7e-m+fp/hard/libc.a(libc_a-__call_atexit.o)
                              /usr/lib/gcc/arm-none-eabi/13.2.1/../../../arm-none-eabi/lib/thumb/v7e-m+fp/hard/libc.a(libc_a-exit.o) (__call_exitprocs)
/usr/lib/gcc/arm-none-eabi/13.2.1/../../../arm-none-eabi/lib/thumb/v7e-m+fp/hard/libc.a(libc_a-__atexit.o)
                              /usr/lib/gcc/arm-none-eabi/13.2.1/../../../arm-none-eabi/lib/thumb/v7e-m+fp/hard/libc.a(libc_a-atexit.o) (__register_exitproc)
/usr/lib/gcc/arm-none-eabi/13.2.1/../../../arm-none-eabi/lib/thumb/v7e-m+fp/hard/libc.a(libc_a-findfp.o)
                              /usr/lib/gcc/arm-none-eabi/13.2.1/../../../arm-none-eabi/lib/thumb/v7e-m+fp/hard/libc.a(libc_a-exit.o) (__stdio_exit_handler)
/usr/lib/gcc/arm-none-eabi/13.2.1/../../../arm-none-eabi/lib/thumb/v7e-m+fp/hard/libc.a(libc_a-fwalk.o)
                              /usr/lib/gcc/arm-none-eabi/13.2.1/../../../arm-none-eabi/lib/thumb/v7e-m+fp/hard/libc.a(libc_a-findfp.o) (_fwalk_sglue)
/usr/lib/gcc/arm-none-eabi/13.2.1/../../../arm-none-eabi/lib/thumb/v7e-m+fp/hard/libc.a(libc_a-impure.o)
                              /usr/lib/gcc/arm-none-eabi/13.2.1/../../../arm-none-eabi/lib/thumb/v7e-m+fp/hard/libc.a(libc_a-findfp.o) (_impure_data)
/usr/lib/gcc/arm-none-eabi/13.2.1/../../../arm-none-eabi/lib/thumb/v7e-m+fp/hard/libc.a(libc_a-mallocr.o)
                              /usr/lib/gcc/arm-none-eabi/13.2.1/../../../arm-none-eabi/lib/thumb/v7e-m+fp/hard/libc.a(libc_a-findfp.o) (_malloc_r)
/usr/lib/gcc/arm-none-eabi/13.2.1/../../../arm-none-eabi/lib/thumb/v7e-m+fp/hard/libc.a(libc_a-freer.o)
                              /usr/lib/gcc/arm-none-eabi/13.2.1/../../../arm-none-eabi/lib/thumb/v7e-m+fp/hard/libc.a(libc_a-mallocr.o) (_free_r)
/usr/lib/gcc/arm-none-eabi/13.2.1/../../../arm-none-eabi/lib/thumb/v7e-m+fp/hard/libc.a(libc_a-fclose.o)
                              /usr/lib/gcc/arm-none-eabi/13.2.1/../../../arm-none-eabi/lib/thumb/v7e-m+fp/hard/libc.a(libc_a-findfp.o) (_fclose_r)
/usr/lib/gcc/arm-none-eabi/13.2.1/../../../arm-none-eabi/lib/thumb/v7e-m+fp/hard/libc.a(libc_a-sysconf.o)
                              /usr/lib/gcc/arm-none-eabi/13.2.1/../../../arm-none-eabi/lib/thumb/v7e-m+fp/hard/libc.a(libc_a-mallocr.o) (sysconf)
/usr/lib/gcc/arm-none-eabi/13.2.1/../../../arm-none-eabi/lib/thumb/v7e-m+fp/hard/libc.a(libc_a-stdio.o)
                              /usr/lib/gcc/arm-none-eabi/13.2.1/../../../arm-none-eabi/lib/thumb/v7e-m+fp/hard/libc.a(libc_a-findfp.o) (__sread)
/usr/lib/gcc/arm-none-eabi/13.2.1/../../../arm-none-eabi/lib/thumb/v7e-m+fp/hard/libc.a(libc_a-writer.o)
                              /usr/lib/gcc/arm-none-eabi/13.2.1/../../../arm-none-eabi/lib/thumb/v7e-m+fp/hard/libc.a(libc_a-stdio.o) (_write_r)
/usr/lib/gcc/arm-none-eabi/13.2.1/../../../arm-none-eabi/lib/thumb/v7e-m+fp/hard/libc.a(libc_a-mlock.o)
                              /usr/lib/gcc/arm-none-eabi/13.2.1/../../../arm-none-eabi/lib/thumb/v7e-m+fp/hard/libc.a(libc_a-mallocr.o) (__malloc_lock)
/usr/lib/gcc/arm-none-eabi/13.2.1/../../../arm-none-eabi/lib/thumb/v7e-m+fp/hard/libc.a(libc_a-sbrkr.o)
                              /usr/lib/gcc/arm-none-eabi/13.2.1/../../../arm-none-eabi/lib/thumb/v7e-m+fp/hard/libc.a(libc_a-mallocr.o) (_sbrk_r)
/usr/lib/gcc/arm-none-eabi/13.2.1/../../../arm-none-eabi/lib/thumb/v7e-m+fp/hard/libc.a(libc_a-closer.o)
                              /usr/lib/gcc/arm-none-eabi/13.2.1/../../../arm-none-eabi/lib/thumb/v7e-m+fp/hard/libc.a(libc_a-stdio.o) (_close_r)
/usr/lib/gcc/arm-none-eabi/13.2.1/../../../arm-none-eabi/lib/thumb/v7e-m+fp/hard/libc.a(libc_a-fflush.o)
                              /usr/lib/gcc/arm-none-eabi/13.2.1/../../../arm-none-eabi/lib/thumb/v7e-m+fp/hard/libc.a(libc_a-fclose.o) (__sflush_r)
/usr/lib/gcc/arm-none-eabi/13.2.1/../../../arm-none-eabi/lib/thumb/v7e-m+fp/hard/libc.a(libc_a-errno.o)
                              /usr/lib/gcc/arm-none-eabi/13.2.1/../../../arm-none-eabi/lib/thumb/v7e-m+fp/hard/libc.a(libc_a-sysconf.o) (__errno)
/usr/lib/gcc/arm-none-eabi/13.2.1/../../../arm-none-eabi/lib/thumb/v7e-m+fp/hard/libc.a(libc_a-readr.o)
                              /usr/lib/gcc/arm-none-eabi/13.2.1/../../../arm-none-eabi/lib/thumb/v7e-m+fp/hard/libc.a(libc_a-stdio.o) (_read_r)
/usr/lib/gcc/arm-none-eabi/13.2.1/../../../arm-none-eabi/lib/thumb/v7e-m+fp/hard/libc.a(libc_a-lseekr.o)
                              /usr/lib/gcc/arm-none-eabi/13.2.1/../../../arm-none-eabi/lib/thumb/v7e-m+fp/hard/libc.a(libc_a-stdio.o) (_lseek_r)
/usr/lib/gcc/arm-none-eabi/13.2.1/../../../arm-none-eabi/lib/thumb/v7e-m+fp/hard/libc.a(libc_a-reent.o)
                              /usr/lib/gcc/arm-none-eabi/13.2.1/../../../arm-none-eabi/lib/thumb/v7e-m+fp/hard/libc.a(libc_a-writer.o) (errno)
/usr/lib/gcc/arm-none-eabi/13.2.1/../../../arm-none-eabi/lib/thumb/v7e-m+fp/hard/libnosys.a(close.o)
                              /usr/lib/gcc/arm-none-eabi/13.2.1/../../../arm-none-eabi/lib/thumb/v7e-m+fp/hard/libc.a(libc_a-closer.o) (_close)
/usr/lib/gcc/arm-none-eabi/13.2.1/../../../arm-none-eabi/lib/thumb/v7e-m+fp/hard/libnosys.a(lseek.o)
                              /usr/lib/gcc/arm-none-eabi/13.2.1/../../../arm-none-eabi/lib/thumb/v7e-m+fp/hard/libc.a(libc_a-lseekr.o) (_lseek)
/usr/lib/gcc/arm-none-eabi/13.2.1/../../../arm-none-eabi/lib/thumb/v7e-m+fp/hard/libnosys.a(read.o)
                              /usr/lib/gcc/arm-none-eabi/13.2.1/../../../arm-none-eabi/lib/thumb/v7e-m+fp/hard/libc.a(libc_a-readr.o) (_read)
/usr/lib/gcc/arm-none-eabi/13.2.1/../../../arm-none-eabi/lib/thumb/v7e-m+fp/hard/libnosys.a(sbrk.o)
                              /usr/lib/gcc/arm-none-eabi/13.2.1/../../../arm-none-eabi/lib/thumb/v7e-m+fp/hard/libc.a(libc_a-sbrkr.o) (_sbrk)
/usr/lib/gcc/arm-none-eabi/13.2.1/../../../arm-none-eabi/lib/thumb/v7e-m+fp/hard/libnosys.a(write.o)
                              /usr/lib/gcc/arm-none-eabi/13.2.1/../../../arm-none-eabi/lib/thumb/v7e-m+fp/hard/libc.a(libc_a-writer.o) (_write)
/usr/lib/gcc/arm-none-eabi/13.2.1/../../../arm-none-eabi/lib/thumb/v7e-m+fp/hard/libnosys.a(_exit.o)
                              /usr/lib/gcc/arm-none-eabi/13.2.1/../../../arm-none-eabi/lib/thumb/v7e-m+fp/hard/libc.a(libc_a-exit.o) (_exit)
/usr/lib/gcc/arm-none-eabi/13.2.1/../../../arm-none-eabi/lib/thumb/v7e-m+fp/hard/libc_nano.a(libc_a-strcat.o)
                              _build/build-tk_kb_18010/ghostfat.o (strcat)
/usr/lib/gcc/arm-none-eabi/13.2.1/../../../arm-none-eabi/lib/thumb/v7e-m+fp/hard/libc_nano.a(libc_a-strcpy.o)
                              /usr/lib/gcc/arm-none-eabi/13.2.1/../../../arm-none-eabi/lib/thumb/v7e-m+fp/hard/libc_nano.a(libc_a-strcat.o) (strcpy)
/usr/lib/gcc/arm-none-eabi/13.2.1/../../../arm-none-eabi/lib/thumb/v7e-m+fp/hard/libc_nano.a(libc_a-utoa.o)
                              _build/build-tk_kb_18010/ghostfat.o (utoa)
/usr/lib/gcc/arm-none-eabi/13.2.1/../../../arm-none-eabi/lib/thumb/v7e-m+fp/hard/libc_nano.a(libc_a-strlen.o)
                              _build/build-tk_kb_18010/dfu_transport_ble.o (strlen)
/usr/lib/gcc/arm-none-eabi/13.2.1/../../../arm-none-eabi/lib/thumb/v7e-m+fp/hard/libc_nano.a(libc_a-memmove.o)
                              _build/build-tk_kb_18010/msc_device.o (memmove)
/usr/lib/gcc/arm-none-eabi/13.2.1/../../../arm-none-eabi/lib/thumb/v7e-m+fp/hard/libc_nano.a(libc_a-memcpy.o)
                              _build/build-tk_kb_18010/dfu_ble_svc.o (memcpy)
/usr/lib/gcc/arm-none-eabi/13.2.1/../../../arm-none-eabi/lib/thumb/v7e-m+fp/hard/libc_nano.a(libc_a-memcmp.o)
                              _build/build-tk_kb_18010/flash_nrf5x.o (memcmp)
/usr/lib/gcc/arm-none-eabi/13.2.1/thumb/v7e-m+fp/hard/libgcc.a(_aeabi_ldivmod.o)
                              _build/build-tk_kb_18010/bootloader.o (__aeabi_ldivmod)
/usr/lib/gcc/arm-none-eabi/13.2.1/thumb/v7e-m+fp/hard/libgcc.a(_aeabi_uldivmod.o)
                              _build/build-tk_kb_18010/bootloader.o (__aeabi_uldivmod)
/usr/lib/gcc/arm-none-eabi/13.2.1/thumb/v7e-m+fp/hard/libgcc.a(_udivmoddi4.o)
                              /usr/lib/gcc/arm-none-eabi/13.2.1/thumb/v7e-m+fp/hard/libgcc.a(_aeabi_ldivmod.o) (__udivmoddi4)
/usr/lib/gcc/arm-none-eabi/13.2.1/thumb/v7e-m+fp/hard/libgcc.a(_dvmd_tls.o)
                              /usr/lib/gcc/arm-none-eabi/13.2.1/thumb/v7e-m+fp/hard/libgcc.a(_aeabi_ldivmod.o) (__aeabi_ldiv0)

Discarded input sections

 .text          0x00000000        0x0 /usr/lib/gcc/arm-none-eabi/13.2.1/thumb/v7e-m+fp/hard/crti.o
 .data          0x00000000        0x0 /usr/lib/gcc/arm-none-eabi/13.2.1/thumb/v7e-m+fp/hard/crti.o
 .bss           0x00000000        0x0 /usr/lib/gcc/arm-none-eabi/13.2.1/thumb/v7e-m+fp/hard/crti.o
 .data          0x00000000        0x4 /usr/lib/gcc/arm-none-eabi/13.2.1/thumb/v7e-m+fp/hard/crtbegin.o
 .rodata        0x00000000       0x24 /usr/lib/gcc/arm-none-eabi/13.2.1/thumb/v7e-m+fp/hard/crtbegin.o
 .data          0x00000000        0x0 /usr/lib/gcc/arm-none-eabi/13.2.1/../../../arm-none-eabi/lib/thumb/v7e-m+fp/hard/crt0.o
 .bss           0x00000000        0x0 /usr/lib/gcc/arm-none-eabi/13.2.1/../../../arm-none-eabi/lib/thumb/v7e-m+fp/hard/crt0.o
 .ARM.extab     0x00000000        0x0 /usr/lib/gcc/arm-none-eabi/13.2.1/../../../arm-none-eabi/lib/thumb/v7e-m+fp/hard/crt0.o
 .data          0x00000000        0x0 /usr/lib/gcc/arm-none-eabi/13.2.1/../../../arm-none-eabi/lib/thumb/v7e-m+fp/hard/libc.a(libc_a-memset.o)
 .bss           0x00000000        0x0 /usr/lib/gcc/arm-none-eabi/13.2.1/../../../arm-none-eabi/lib/thumb/v7e-m+fp/hard/libc.a(libc_a-memset.o)
 .data          0x00000000        0x0 /usr/lib/gcc/arm-none-eabi/13.2.1/../../../arm-none-eabi/lib/thumb/v7e-m+fp/hard/libc.a(libc_a-init.o)
 .bss           0x00000000        0x0 /usr/lib/gcc/arm-none-eabi/13.2.1/../../../arm-none-eabi/lib/thumb/v7e-m+fp/hard/libc.a(libc_a-init.o)
 .data          0x00000000        0x0 /usr/lib/gcc/arm-none-eabi/13.2.1/../../../arm-none-eabi/lib/thumb/v7e-m+fp/hard/libc.a(libc_a-exit.o)
 .bss           0x00000000        0x0 /usr/lib/gcc/arm-none-eabi/13.2.1/../../../arm-none-eabi/lib/thumb/v7e-m+fp/hard/libc.a(libc_a-exit.o)
 .data          0x00000000        0x0 /usr/lib/gcc/arm-none-eabi/13.2.1/../../../arm-none-eabi/lib/thumb/v7e-m+fp/hard/libc.a(libc_a-atexit.o)
 .bss           0x00000000        0x0 /usr/lib/gcc/arm-none-eabi/13.2.1/../../../arm-none-eabi/lib/thumb/v7e-m+fp/hard/libc.a(libc_a-atexit.o)
 .data          0x00000000        0x0 /usr/lib/gcc/arm-none-eabi/13.2.1/../../../arm-none-eabi/lib/thumb/v7e-m+fp/hard/libc.a(libc_a-fini.o)
 .bss           0x00000000        0x0 /usr/lib/gcc/arm-none-eabi/13.2.1/../../../arm-none-eabi/lib/thumb/v7e-m+fp/hard/libc.a(libc_a-fini.o)
 .data          0x00000000        0x0 /usr/lib/gcc/arm-none-eabi/13.2.1/../../../arm-none-eabi/lib/thumb/v7e-m+fp/hard/libc.a(libc_a-__call_atexit.o)
 .data          0x00000000        0x0 /usr/lib/gcc/arm-none-eabi/13.2.1/../../../arm-none-eabi/lib/thumb/v7e-m+fp/hard/libc.a(libc_a-__atexit.o)
 .text          0x00000000      0x224 /usr/lib/gcc/arm-none-eabi/13.2.1/../../../arm-none-eabi/lib/thumb/v7e-m+fp/hard/libc.a(libc_a-findfp.o)
 .data          0x00000000        0xc /usr/lib/gcc/arm-none-eabi/13.2.1/../../../arm-none-eabi/lib/thumb/v7e-m+fp/hard/libc.a(libc_a-findfp.o)
 .text          0x00000000       0x44 /usr/lib/gcc/arm-none-eabi/13.2.1/../../../arm-none-eabi/lib/thumb/v7e-m+fp/hard/libc.a(libc_a-fwalk.o)
 .data          0x00000000        0x0 /usr/lib/gcc/arm-none-eabi/13.2.1/../../../arm-none-eabi/lib/thumb/v7e-m+fp/hard/libc.a(libc_a-fwalk.o)
 .bss           0x00000000        0x0 /usr/lib/gcc/arm-none-eabi/13.2.1/../../../arm-none-eabi/lib/thumb/v7e-m+fp/hard/libc.a(libc_a-fwalk.o)
 .debug_info    0x00000000      0x7e4 /usr/lib/gcc/arm-none-eabi/13.2.1/../../../arm-none-eabi/lib/thumb/v7e-m+fp/hard/libc.a(libc_a-fwalk.o)
 .debug_abbrev  0x00000000      0x1d9 /usr/lib/gcc/arm-none-eabi/13.2.1/../../../arm-none-eabi/lib/thumb/v7e-m+fp/hard/libc.a(libc_a-fwalk.o)
 .debug_loclists
                0x00000000       0x87 /usr/lib/gcc/arm-none-eabi/13.2.1/../../../arm-none-eabi/lib/thumb/v7e-m+fp/hard/libc.a(libc_a-fwalk.o)
 .debug_aranges
                0x00000000       0x20 /usr/lib/gcc/arm-none-eabi/13.2.1/../../../arm-none-eabi/lib/thumb/v7e-m+fp/hard/libc.a(libc_a-fwalk.o)
 .debug_line    0x00000000      0x1d1 /usr/lib/gcc/arm-none-eabi/13.2.1/../../../arm-none-eabi/lib/thumb/v7e-m+fp/hard/libc.a(libc_a-fwalk.o)
 .debug_str     0x00000000      0x4b7 /usr/lib/gcc/arm-none-eabi/13.2.1/../../../arm-none-eabi/lib/thumb/v7e-m+fp/hard/libc.a(libc_a-fwalk.o)
 .comment       0x00000000       0x27 /usr/lib/gcc/arm-none-eabi/13.2.1/../../../arm-none-eabi/lib/thumb/v7e-m+fp/hard/libc.a(libc_a-fwalk.o)
 .debug_frame   0x00000000       0x34 /usr/lib/gcc/arm-none-eabi/13.2.1/../../../arm-none-eabi/lib/thumb/v7e-m+fp/hard/libc.a(libc_a-fwalk.o)
 .ARM.attributes
                0x00000000       0x34 /usr/lib/gcc/arm-none-eabi/13.2.1/../../../arm-none-eabi/lib/thumb/v7e-m+fp/hard/libc.a(libc_a-fwalk.o)
 .text          0x00000000        0x0 /usr/lib/gcc/arm-none-eabi/13.2.1/../../../arm-none-eabi/lib/thumb/v7e-m+fp/hard/libc.a(libc_a-impure.o)
 .data          0x00000000      0x128 /usr/lib/gcc/arm-none-eabi/13.2.1/../../../arm-none-eabi/lib/thumb/v7e-m+fp/hard/libc.a(libc_a-impure.o)
 .bss           0x00000000        0x0 /usr/lib/gcc/arm-none-eabi/13.2.1/../../../arm-none-eabi/lib/thumb/v7e-m+fp/hard/libc.a(libc_a-impure.o)
 .debug_info    0x00000000      0x729 /usr/lib/gcc/arm-none-eabi/13.2.1/../../../arm-none-eabi/lib/thumb/v7e-m+fp/hard/libc.a(libc_a-impure.o)
 .debug_abbrev  0x00000000      0x185 /usr/lib/gcc/arm-none-eabi/13.2.1/../../../arm-none-eabi/lib/thumb/v7e-m+fp/hard/libc.a(libc_a-impure.o)
 .debug_aranges
                0x00000000       0x18 /usr/lib/gcc/arm-none-eabi/13.2.1/../../../arm-none-eabi/lib/thumb/v7e-m+fp/hard/libc.a(libc_a-impure.o)
 .debug_line    0x00000000       0xe7 /usr/lib/gcc/arm-none-eabi/13.2.1/../../../arm-none-eabi/lib/thumb/v7e-m+fp/hard/libc.a(libc_a-impure.o)
 .debug_str     0x00000000      0x4ac /usr/lib/gcc/arm-none-eabi/13.2.1/../../../arm-none-eabi/lib/thumb/v7e-m+fp/hard/libc.a(libc_a-impure.o)
 .comment       0x00000000       0x27 /usr/lib/gcc/arm-none-eabi/13.2.1/../../../arm-none-eabi/lib/thumb/v7e-m+fp/hard/libc.a(libc_a-impure.o)
 .ARM.attributes
                0x00000000       0x34 /usr/lib/gcc/arm-none-eabi/13.2.1/../../../arm-none-eabi/lib/thumb/v7e-m+fp/hard/libc.a(libc_a-impure.o)
 .text          0x00000000      0x554 /usr/lib/gcc/arm-none-eabi/13.2.1/../../../arm-none-eabi/lib/thumb/v7e-m+fp/hard/libc.a(libc_a-mallocr.o)
 .data          0x00000000      0x410 /usr/lib/gcc/arm-none-eabi/13.2.1/../../../arm-none-eabi/lib/thumb/v7e-m+fp/hard/libc.a(libc_a-mallocr.o)
 .bss           0x00000000       0x34 /usr/lib/gcc/arm-none-eabi/13.2.1/../../../arm-none-eabi/lib/thumb/v7e-m+fp/hard/libc.a(libc_a-mallocr.o)
 .debug_info    0x00000000      0xcd9 /usr/lib/gcc/arm-none-eabi/13.2.1/../../../arm-none-eabi/lib/thumb/v7e-m+fp/hard/libc.a(libc_a-mallocr.o)
 .debug_abbrev  0x00000000      0x2d7 /usr/lib/gcc/arm-none-eabi/13.2.1/../../../arm-none-eabi/lib/thumb/v7e-m+fp/hard/libc.a(libc_a-mallocr.o)
 .debug_loclists
                0x00000000      0xa4c /usr/lib/gcc/arm-none-eabi/13.2.1/../../../arm-none-eabi/lib/thumb/v7e-m+fp/hard/libc.a(libc_a-mallocr.o)
 .debug_aranges
                0x00000000       0x20 /usr/lib/gcc/arm-none-eabi/13.2.1/../../../arm-none-eabi/lib/thumb/v7e-m+fp/hard/libc.a(libc_a-mallocr.o)
 .debug_rnglists
                0x00000000       0x2b /usr/lib/gcc/arm-none-eabi/13.2.1/../../../arm-none-eabi/lib/thumb/v7e-m+fp/hard/libc.a(libc_a-mallocr.o)
 .debug_line    0x00000000      0x8eb /usr/lib/gcc/arm-none-eabi/13.2.1/../../../arm-none-eabi/lib/thumb/v7e-m+fp/hard/libc.a(libc_a-mallocr.o)
 .debug_str     0x00000000      0x6cf /usr/lib/gcc/arm-none-eabi/13.2.1/../../../arm-none-eabi/lib/thumb/v7e-m+fp/hard/libc.a(libc_a-mallocr.o)
 .comment       0x00000000       0x27 /usr/lib/gcc/arm-none-eabi/13.2.1/../../../arm-none-eabi/lib/thumb/v7e-m+fp/hard/libc.a(libc_a-mallocr.o)
 .debug_frame   0x00000000       0x48 /usr/lib/gcc/arm-none-eabi/13.2.1/../../../arm-none-eabi/lib/thumb/v7e-m+fp/hard/libc.a(libc_a-mallocr.o)
 .ARM.attributes
                0x00000000       0x34 /usr/lib/gcc/arm-none-eabi/13.2.1/../../../arm-none-eabi/lib/thumb/v7e-m+fp/hard/libc.a(libc_a-mallocr.o)
 .text          0x00000000      0x2b0 /usr/lib/gcc/arm-none-eabi/13.2.1/../../../arm-none-eabi/lib/thumb/v7e-m+fp/hard/libc.a(libc_a-freer.o)
 .data          0x00000000        0x0 /usr/lib/gcc/arm-none-eabi/13.2.1/../../../arm-none-eabi/lib/thumb/v7e-m+fp/hard/libc.a(libc_a-freer.o)
 .bss           0x00000000        0x0 /usr/lib/gcc/arm-none-eabi/13.2.1/../../../arm-none-eabi/lib/thumb/v7e-m+fp/hard/libc.a(libc_a-freer.o)
 .debug_info    0x00000000      0xb55 /usr/lib/gcc/arm-none-eabi/13.2.1/../../../arm-none-eabi/lib/thumb/v7e-m+fp/hard/libc.a(libc_a-freer.o)
 .debug_abbrev  0x00000000      0x27f /usr/lib/gcc/arm-none-eabi/13.2.1/../../../arm-none-eabi/lib/thumb/v7e-m+fp/hard/libc.a(libc_a-freer.o)
 .debug_loclists
                0x00000000      0x46a /usr/lib/gcc/arm-none-eabi/13.2.1/../../../arm-none-eabi/lib/thumb/v7e-m+fp/hard/libc.a(libc_a-freer.o)
 .debug_aranges
                0x00000000       0x20 /usr/lib/gcc/arm-none-eabi/13.2.1/../../../arm-none-eabi/lib/thumb/v7e-m+fp/hard/libc.a(libc_a-freer.o)
 .debug_line    0x00000000      0x545 /usr/lib/gcc/arm-none-eabi/13.2.1/../../../arm-none-eabi/lib/thumb/v7e-m+fp/hard/libc.a(libc_a-freer.o)
 .debug_str     0x00000000      0x617 /usr/lib/gcc/arm-none-eabi/13.2.1/../../../arm-none-eabi/lib/thumb/v7e-m+fp/hard/libc.a(libc_a-freer.o)
 .comment       0x00000000       0x27 /usr/lib/gcc/arm-none-eabi/13.2.1/../../../arm-none-eabi/lib/thumb/v7e-m+fp/hard/libc.a(libc_a-freer.o)
 .debug_frame   0x00000000       0x78 /usr/lib/gcc/arm-none-eabi/13.2.1/../../../arm-none-eabi/lib/thumb/v7e-m+fp/hard/libc.a(libc_a-freer.o)
 .ARM.attributes
                0x00000000       0x34 /usr/lib/gcc/arm-none-eabi/13.2.1/../../../arm-none-eabi/lib/thumb/v7e-m+fp/hard/libc.a(libc_a-freer.o)
 .text          0x00000000       0x90 /usr/lib/gcc/arm-none-eabi/13.2.1/../../../arm-none-eabi/lib/thumb/v7e-m+fp/hard/libc.a(libc_a-fclose.o)
 .data          0x00000000        0x0 /usr/lib/gcc/arm-none-eabi/13.2.1/../../../arm-none-eabi/lib/thumb/v7e-m+fp/hard/libc.a(libc_a-fclose.o)
 .bss           0x00000000        0x0 /usr/lib/gcc/arm-none-eabi/13.2.1/../../../arm-none-eabi/lib/thumb/v7e-m+fp/hard/libc.a(libc_a-fclose.o)
 .debug_info    0x00000000      0x8e6 /usr/lib/gcc/arm-none-eabi/13.2.1/../../../arm-none-eabi/lib/thumb/v7e-m+fp/hard/libc.a(libc_a-fclose.o)
 .debug_abbrev  0x00000000      0x2ed /usr/lib/gcc/arm-none-eabi/13.2.1/../../../arm-none-eabi/lib/thumb/v7e-m+fp/hard/libc.a(libc_a-fclose.o)
 .debug_loclists
                0x00000000       0xf7 /usr/lib/gcc/arm-none-eabi/13.2.1/../../../arm-none-eabi/lib/thumb/v7e-m+fp/hard/libc.a(libc_a-fclose.o)
 .debug_aranges
                0x00000000       0x20 /usr/lib/gcc/arm-none-eabi/13.2.1/../../../arm-none-eabi/lib/thumb/v7e-m+fp/hard/libc.a(libc_a-fclose.o)
 .debug_rnglists
                0x00000000       0x1b /usr/lib/gcc/arm-none-eabi/13.2.1/../../../arm-none-eabi/lib/thumb/v7e-m+fp/hard/libc.a(libc_a-fclose.o)
 .debug_line    0x00000000      0x253 /usr/lib/gcc/arm-none-eabi/13.2.1/../../../arm-none-eabi/lib/thumb/v7e-m+fp/hard/libc.a(libc_a-fclose.o)
 .debug_str     0x00000000      0x506 /usr/lib/gcc/arm-none-eabi/13.2.1/../../../arm-none-eabi/lib/thumb/v7e-m+fp/hard/libc.a(libc_a-fclose.o)
 .comment       0x00000000       0x27 /usr/lib/gcc/arm-none-eabi/13.2.1/../../../arm-none-eabi/lib/thumb/v7e-m+fp/hard/libc.a(libc_a-fclose.o)
 .debug_frame   0x00000000       0x3c /usr/lib/gcc/arm-none-eabi/13.2.1/../../../arm-none-eabi/lib/thumb/v7e-m+fp/hard/libc.a(libc_a-fclose.o)
 .ARM.attributes
                0x00000000       0x34 /usr/lib/gcc/arm-none-eabi/13.2.1/../../../arm-none-eabi/lib/thumb/v7e-m+fp/hard/libc.a(libc_a-fclose.o)
 .text          0x00000000       0x1c /usr/lib/gcc/arm-none-eabi/13.2.1/../../../arm-none-eabi/lib/thumb/v7e-m+fp/hard/libc.a(libc_a-sysconf.o)
 .data          0x00000000        0x0 /usr/lib/gcc/arm-none-eabi/13.2.1/../../../arm-none-eabi/lib/thumb/v7e-m+fp/hard/libc.a(libc_a-sysconf.o)
 .bss           0x00000000        0x0 /usr/lib/gcc/arm-none-eabi/13.2.1/../../../arm-none-eabi/lib/thumb/v7e-m+fp/hard/libc.a(libc_a-sysconf.o)
 .debug_info    0x00000000       0xc1 /usr/lib/gcc/arm-none-eabi/13.2.1/../../../arm-none-eabi/lib/thumb/v7e-m+fp/hard/libc.a(libc_a-sysconf.o)
 .debug_abbrev  0x00000000       0x80 /usr/lib/gcc/arm-none-eabi/13.2.1/../../../arm-none-eabi/lib/thumb/v7e-m+fp/hard/libc.a(libc_a-sysconf.o)
 .debug_loclists
                0x00000000       0x3b /usr/lib/gcc/arm-none-eabi/13.2.1/../../../arm-none-eabi/lib/thumb/v7e-m+fp/hard/libc.a(libc_a-sysconf.o)
 .debug_aranges
                0x00000000       0x20 /usr/lib/gcc/arm-none-eabi/13.2.1/../../../arm-none-eabi/lib/thumb/v7e-m+fp/hard/libc.a(libc_a-sysconf.o)
 .debug_line    0x00000000       0xe6 /usr/lib/gcc/arm-none-eabi/13.2.1/../../../arm-none-eabi/lib/thumb/v7e-m+fp/hard/libc.a(libc_a-sysconf.o)
 .debug_str     0x00000000      0x19d /usr/lib/gcc/arm-none-eabi/13.2.1/../../../arm-none-eabi/lib/thumb/v7e-m+fp/hard/libc.a(libc_a-sysconf.o)
 .comment       0x00000000       0x27 /usr/lib/gcc/arm-none-eabi/13.2.1/../../../arm-none-eabi/lib/thumb/v7e-m+fp/hard/libc.a(libc_a-sysconf.o)
 .debug_frame   0x00000000       0x28 /usr/lib/gcc/arm-none-eabi/13.2.1/../../../arm-none-eabi/lib/thumb/v7e-m+fp/hard/libc.a(libc_a-sysconf.o)
 .ARM.attributes
                0x00000000       0x34 /usr/lib/gcc/arm-none-eabi/13.2.1/../../../arm-none-eabi/lib/thumb/v7e-m+fp/hard/libc.a(libc_a-sysconf.o)
 .text          0x00000000       0x94 /usr/lib/gcc/arm-none-eabi/13.2.1/../../../arm-none-eabi/lib/thumb/v7e-m+fp/hard/libc.a(libc_a-stdio.o)
 .data          0x00000000        0x0 /usr/lib/gcc/arm-none-eabi/13.2.1/../../../arm-none-eabi/lib/thumb/v7e-m+fp/hard/libc.a(libc_a-stdio.o)
 .bss           0x00000000        0x0 /usr/lib/gcc/arm-none-eabi/13.2.1/../../../arm-none-eabi/lib/thumb/v7e-m+fp/hard/libc.a(libc_a-stdio.o)
 .debug_info    0x00000000      0xa9e /usr/lib/gcc/arm-none-eabi/13.2.1/../../../arm-none-eabi/lib/thumb/v7e-m+fp/hard/libc.a(libc_a-stdio.o)
 .debug_abbrev  0x00000000      0x260 /usr/lib/gcc/arm-none-eabi/13.2.1/../../../arm-none-eabi/lib/thumb/v7e-m+fp/hard/libc.a(libc_a-stdio.o)
 .debug_loclists
                0x00000000      0x23b /usr/lib/gcc/arm-none-eabi/13.2.1/../../../arm-none-eabi/lib/thumb/v7e-m+fp/hard/libc.a(libc_a-stdio.o)
 .debug_aranges
                0x00000000       0x20 /usr/lib/gcc/arm-none-eabi/13.2.1/../../../arm-none-eabi/lib/thumb/v7e-m+fp/hard/libc.a(libc_a-stdio.o)
 .debug_line    0x00000000      0x22b /usr/lib/gcc/arm-none-eabi/13.2.1/../../../arm-none-eabi/lib/thumb/v7e-m+fp/hard/libc.a(libc_a-stdio.o)
 .debug_str     0x00000000      0x514 /usr/lib/gcc/arm-none-eabi/13.2.1/../../../arm-none-eabi/lib/thumb/v7e-m+fp/hard/libc.a(libc_a-stdio.o)
 .comment       0x00000000       0x27 /usr/lib/gcc/arm-none-eabi/13.2.1/../../../arm-none-eabi/lib/thumb/v7e-m+fp/hard/libc.a(libc_a-stdio.o)
 .debug_frame   0x00000000       0x8c /usr/lib/gcc/arm-none-eabi/13.2.1/../../../arm-none-eabi/lib/thumb/v7e-m+fp/hard/libc.a(libc_a-stdio.o)
 .ARM.attributes
                0x00000000       0x34 /usr/lib/gcc/arm-none-eabi/13.2.1/../../../arm-none-eabi/lib/thumb/v7e-m+fp/hard/libc.a(libc_a-stdio.o)
 .text          0x00000000       0x2c /usr/lib/gcc/arm-none-eabi/13.2.1/../../../arm-none-eabi/lib/thumb/v7e-m+fp/hard/libc.a(libc_a-writer.o)
 .data          0x00000000        0x0 /usr/lib/gcc/arm-none-eabi/13.2.1/../../../arm-none-eabi/lib/thumb/v7e-m+fp/hard/libc.a(libc_a-writer.o)
 .bss           0x00000000        0x0 /usr/lib/gcc/arm-none-eabi/13.2.1/../../../arm-none-eabi/lib/thumb/v7e-m+fp/hard/libc.a(libc_a-writer.o)
 .debug_info    0x00000000      0x7d9 /usr/lib/gcc/arm-none-eabi/13.2.1/../../../arm-none-eabi/lib/thumb/v7e-m+fp/hard/libc.a(libc_a-writer.o)
 .debug_abbrev  0x00000000      0x1f1 /usr/lib/gcc/arm-none-eabi/13.2.1/../../../arm-none-eabi/lib/thumb/v7e-m+fp/hard/libc.a(libc_a-writer.o)
 .debug_loclists
                0x00000000       0x9e /usr/lib/gcc/arm-none-eabi/13.2.1/../../../arm-none-eabi/lib/thumb/v7e-m+fp/hard/libc.a(libc_a-writer.o)
 .debug_aranges
                0x00000000       0x20 /usr/lib/gcc/arm-none-eabi/13.2.1/../../../arm-none-eabi/lib/thumb/v7e-m+fp/hard/libc.a(libc_a-writer.o)
 .debug_line    0x00000000      0x199 /usr/lib/gcc/arm-none-eabi/13.2.1/../../../arm-none-eabi/lib/thumb/v7e-m+fp/hard/libc.a(libc_a-writer.o)
 .debug_str     0x00000000      0x4ad /usr/lib/gcc/arm-none-eabi/13.2.1/../../../arm-none-eabi/lib/thumb/v7e-m+fp/hard/libc.a(libc_a-writer.o)
 .comment       0x00000000       0x27 /usr/lib/gcc/arm-none-eabi/13.2.1/../../../arm-none-eabi/lib/thumb/v7e-m+fp/hard/libc.a(libc_a-writer.o)
 .debug_frame   0x00000000       0x2c /usr/lib/gcc/arm-none-eabi/13.2.1/../../../arm-none-eabi/lib/thumb/v7e-m+fp/hard/libc.a(libc_a-writer.o)
 .ARM.attributes
                0x00000000       0x34 /usr/lib/gcc/arm-none-eabi/13.2.1/../../../arm-none-eabi/lib/thumb/v7e-m+fp/hard/libc.a(libc_a-writer.o)
 .text          0x00000000        0x8 /usr/lib/gcc/arm-none-eabi/13.2.1/../../../arm-none-eabi/lib/thumb/v7e-m+fp/hard/libc.a(libc_a-mlock.o)
 .data          0x00000000        0x0 /usr/lib/gcc/arm-none-eabi/13.2.1/../../../arm-none-eabi/lib/thumb/v7e-m+fp/hard/libc.a(libc_a-mlock.o)
 .bss           0x00000000        0x0 /usr/lib/gcc/arm-none-eabi/13.2.1/../../../arm-none-eabi/lib/thumb/v7e-m+fp/hard/libc.a(libc_a-mlock.o)
 .debug_info    0x00000000      0x73a /usr/lib/gcc/arm-none-eabi/13.2.1/../../../arm-none-eabi/lib/thumb/v7e-m+fp/hard/libc.a(libc_a-mlock.o)
 .debug_abbrev  0x00000000      0x1ce /usr/lib/gcc/arm-none-eabi/13.2.1/../../../arm-none-eabi/lib/thumb/v7e-m+fp/hard/libc.a(libc_a-mlock.o)
 .debug_aranges
                0x00000000       0x20 /usr/lib/gcc/arm-none-eabi/13.2.1/../../../arm-none-eabi/lib/thumb/v7e-m+fp/hard/libc.a(libc_a-mlock.o)
 .debug_line    0x00000000      0x153 /usr/lib/gcc/arm-none-eabi/13.2.1/../../../arm-none-eabi/lib/thumb/v7e-m+fp/hard/libc.a(libc_a-mlock.o)
 .debug_str     0x00000000      0x4c5 /usr/lib/gcc/arm-none-eabi/13.2.1/../../../arm-none-eabi/lib/thumb/v7e-m+fp/hard/libc.a(libc_a-mlock.o)
 .comment       0x00000000       0x27 /usr/lib/gcc/arm-none-eabi/13.2.1/../../../arm-none-eabi/lib/thumb/v7e-m+fp/hard/libc.a(libc_a-mlock.o)
 .debug_frame   0x00000000       0x30 /usr/lib/gcc/arm-none-eabi/13.2.1/../../../arm-none-eabi/lib/thumb/v7e-m+fp/hard/libc.a(libc_a-mlock.o)
 .ARM.attributes
                0x00000000       0x34 /usr/lib/gcc/arm-none-eabi/13.2.1/../../../arm-none-eabi/lib/thumb/v7e-m+fp/hard/libc.a(libc_a-mlock.o)
 .text          0x00000000       0x24 /usr/lib/gcc/arm-none-eabi/13.2.1/../../../arm-none-eabi/lib/thumb/v7e-m+fp/hard/libc.a(libc_a-sbrkr.o)
 .data          0x00000000        0x0 /usr/lib/gcc/arm-none-eabi/13.2.1/../../../arm-none-eabi/lib/thumb/v7e-m+fp/hard/libc.a(libc_a-sbrkr.o)
 .bss           0x00000000        0x0 /usr/lib/gcc/arm-none-eabi/13.2.1/../../../arm-none-eabi/lib/thumb/v7e-m+fp/hard/libc.a(libc_a-sbrkr.o)
 .debug_info    0x00000000      0x796 /usr/lib/gcc/arm-none-eabi/13.2.1/../../../arm-none-eabi/lib/thumb/v7e-m+fp/hard/libc.a(libc_a-sbrkr.o)
 .debug_abbrev  0x00000000      0x216 /usr/lib/gcc/arm-none-eabi/13.2.1/../../../arm-none-eabi/lib/thumb/v7e-m+fp/hard/libc.a(libc_a-sbrkr.o)
 .debug_loclists
                0x00000000       0x4b /usr/lib/gcc/arm-none-eabi/13.2.1/../../../arm-none-eabi/lib/thumb/v7e-m+fp/hard/libc.a(libc_a-sbrkr.o)
 .debug_aranges
                0x00000000       0x20 /usr/lib/gcc/arm-none-eabi/13.2.1/../../../arm-none-eabi/lib/thumb/v7e-m+fp/hard/libc.a(libc_a-sbrkr.o)
 .debug_line    0x00000000      0x193 /usr/lib/gcc/arm-none-eabi/13.2.1/../../../arm-none-eabi/lib/thumb/v7e-m+fp/hard/libc.a(libc_a-sbrkr.o)
 .debug_str     0x00000000      0x4b0 /usr/lib/gcc/arm-none-eabi/13.2.1/../../../arm-none-eabi/lib/thumb/v7e-m+fp/hard/libc.a(libc_a-sbrkr.o)
 .comment       0x00000000       0x27 /usr/lib/gcc/arm-none-eabi/13.2.1/../../../arm-none-eabi/lib/thumb/v7e-m+fp/hard/libc.a(libc_a-sbrkr.o)
 .debug_frame   0x00000000       0x2c /usr/lib/gcc/arm-none-eabi/13.2.1/../../../arm-none-eabi/lib/thumb/v7e-m+fp/hard/libc.a(libc_a-sbrkr.o)
 .ARM.attributes
                0x00000000       0x34 /usr/lib/gcc/arm-none-eabi/13.2.1/../../../arm-none-eabi/lib/thumb/v7e-m+fp/hard/libc.a(libc_a-sbrkr.o)
 .text          0x00000000       0x24 /usr/lib/gcc/arm-none-eabi/13.2.1/../../../arm-none-eabi/lib/thumb/v7e-m+fp/hard/libc.a(libc_a-closer.o)
 .data          0x00000000        0x0 /usr/lib/gcc/arm-none-eabi/13.2.1/../../../arm-none-eabi/lib/thumb/v7e-m+fp/hard/libc.a(libc_a-closer.o)
 .bss           0x00000000        0x0 /usr/lib/gcc/arm-none-eabi/13.2.1/../../../arm-none-eabi/lib/thumb/v7e-m+fp/hard/libc.a(libc_a-closer.o)
 .debug_info    0x00000000      0x770 /usr/lib/gcc/arm-none-eabi/13.2.1/../../../arm-none-eabi/lib/thumb/v7e-m+fp/hard/libc.a(libc_a-closer.o)
 .debug_abbrev  0x00000000      0x1ec /usr/lib/gcc/arm-none-eabi/13.2.1/../../../arm-none-eabi/lib/thumb/v7e-m+fp/hard/libc.a(libc_a-closer.o)
 .debug_loclists
                0x00000000       0x4b /usr/lib/gcc/arm-none-eabi/13.2.1/../../../arm-none-eabi/lib/thumb/v7e-m+fp/hard/libc.a(libc_a-closer.o)
 .debug_aranges
                0x00000000       0x20 /usr/lib/gcc/arm-none-eabi/13.2.1/../../../arm-none-eabi/lib/thumb/v7e-m+fp/hard/libc.a(libc_a-closer.o)
 .debug_line    0x00000000      0x193 /usr/lib/gcc/arm-none-eabi/13.2.1/../../../arm-none-eabi/lib/thumb/v7e-m+fp/hard/libc.a(libc_a-closer.o)
 .debug_str     0x00000000      0x49d /usr/lib/gcc/arm-none-eabi/13.2.1/../../../arm-none-eabi/lib/thumb/v7e-m+fp/hard/libc.a(libc_a-closer.o)
 .comment       0x00000000       0x27 /usr/lib/gcc/arm-none-eabi/13.2.1/../../../arm-none-eabi/lib/thumb/v7e-m+fp/hard/libc.a(libc_a-closer.o)
 .debug_frame   0x00000000       0x2c /usr/lib/gcc/arm-none-eabi/13.2.1/../../../arm-none-eabi/lib/thumb/v7e-m+fp/hard/libc.a(libc_a-closer.o)
 .ARM.attributes
                0x00000000       0x34 /usr/lib/gcc/arm-none-eabi/13.2.1/../../../arm-none-eabi/lib/thumb/v7e-m+fp/hard/libc.a(libc_a-closer.o)
 .text          0x00000000      0x1ac /usr/lib/gcc/arm-none-eabi/13.2.1/../../../arm-none-eabi/lib/thumb/v7e-m+fp/hard/libc.a(libc_a-fflush.o)
 .data          0x00000000        0x0 /usr/lib/gcc/arm-none-eabi/13.2.1/../../../arm-none-eabi/lib/thumb/v7e-m+fp/hard/libc.a(libc_a-fflush.o)
 .bss           0x00000000        0x0 /usr/lib/gcc/arm-none-eabi/13.2.1/../../../arm-none-eabi/lib/thumb/v7e-m+fp/hard/libc.a(libc_a-fflush.o)
 .debug_info    0x00000000      0xa4f /usr/lib/gcc/arm-none-eabi/13.2.1/../../../arm-none-eabi/lib/thumb/v7e-m+fp/hard/libc.a(libc_a-fflush.o)
 .debug_abbrev  0x00000000      0x322 /usr/lib/gcc/arm-none-eabi/13.2.1/../../../arm-none-eabi/lib/thumb/v7e-m+fp/hard/libc.a(libc_a-fflush.o)
 .debug_loclists
                0x00000000      0x2a4 /usr/lib/gcc/arm-none-eabi/13.2.1/../../../arm-none-eabi/lib/thumb/v7e-m+fp/hard/libc.a(libc_a-fflush.o)
 .debug_aranges
                0x00000000       0x20 /usr/lib/gcc/arm-none-eabi/13.2.1/../../../arm-none-eabi/lib/thumb/v7e-m+fp/hard/libc.a(libc_a-fflush.o)
 .debug_rnglists
                0x00000000       0x59 /usr/lib/gcc/arm-none-eabi/13.2.1/../../../arm-none-eabi/lib/thumb/v7e-m+fp/hard/libc.a(libc_a-fflush.o)
 .debug_line    0x00000000      0x45d /usr/lib/gcc/arm-none-eabi/13.2.1/../../../arm-none-eabi/lib/thumb/v7e-m+fp/hard/libc.a(libc_a-fflush.o)
 .debug_str     0x00000000      0x52e /usr/lib/gcc/arm-none-eabi/13.2.1/../../../arm-none-eabi/lib/thumb/v7e-m+fp/hard/libc.a(libc_a-fflush.o)
 .comment       0x00000000       0x27 /usr/lib/gcc/arm-none-eabi/13.2.1/../../../arm-none-eabi/lib/thumb/v7e-m+fp/hard/libc.a(libc_a-fflush.o)
 .debug_frame   0x00000000       0x88 /usr/lib/gcc/arm-none-eabi/13.2.1/../../../arm-none-eabi/lib/thumb/v7e-m+fp/hard/libc.a(libc_a-fflush.o)
 .ARM.attributes
                0x00000000       0x34 /usr/lib/gcc/arm-none-eabi/13.2.1/../../../arm-none-eabi/lib/thumb/v7e-m+fp/hard/libc.a(libc_a-fflush.o)
 .text          0x00000000        0xc /usr/lib/gcc/arm-none-eabi/13.2.1/../../../arm-none-eabi/lib/thumb/v7e-m+fp/hard/libc.a(libc_a-errno.o)
 .data          0x00000000        0x0 /usr/lib/gcc/arm-none-eabi/13.2.1/../../../arm-none-eabi/lib/thumb/v7e-m+fp/hard/libc.a(libc_a-errno.o)
 .bss           0x00000000        0x0 /usr/lib/gcc/arm-none-eabi/13.2.1/../../../arm-none-eabi/lib/thumb/v7e-m+fp/hard/libc.a(libc_a-errno.o)
 .debug_info    0x00000000      0x70f /usr/lib/gcc/arm-none-eabi/13.2.1/../../../arm-none-eabi/lib/thumb/v7e-m+fp/hard/libc.a(libc_a-errno.o)
 .debug_abbrev  0x00000000      0x19a /usr/lib/gcc/arm-none-eabi/13.2.1/../../../arm-none-eabi/lib/thumb/v7e-m+fp/hard/libc.a(libc_a-errno.o)
 .debug_aranges
                0x00000000       0x20 /usr/lib/gcc/arm-none-eabi/13.2.1/../../../arm-none-eabi/lib/thumb/v7e-m+fp/hard/libc.a(libc_a-errno.o)
 .debug_line    0x00000000      0x10c /usr/lib/gcc/arm-none-eabi/13.2.1/../../../arm-none-eabi/lib/thumb/v7e-m+fp/hard/libc.a(libc_a-errno.o)
 .debug_str     0x00000000      0x4a1 /usr/lib/gcc/arm-none-eabi/13.2.1/../../../arm-none-eabi/lib/thumb/v7e-m+fp/hard/libc.a(libc_a-errno.o)
 .comment       0x00000000       0x27 /usr/lib/gcc/arm-none-eabi/13.2.1/../../../arm-none-eabi/lib/thumb/v7e-m+fp/hard/libc.a(libc_a-errno.o)
 .debug_frame   0x00000000       0x20 /usr/lib/gcc/arm-none-eabi/13.2.1/../../../arm-none-eabi/lib/thumb/v7e-m+fp/hard/libc.a(libc_a-errno.o)
 .ARM.attributes
                0x00000000       0x34 /usr/lib/gcc/arm-none-eabi/13.2.1/../../../arm-none-eabi/lib/thumb/v7e-m+fp/hard/libc.a(libc_a-errno.o)
 .text          0x00000000       0x2c /usr/lib/gcc/arm-none-eabi/13.2.1/../../../arm-none-eabi/lib/thumb/v7e-m+fp/hard/libc.a(libc_a-readr.o)
 .data          0x00000000        0x0 /usr/lib/gcc/arm-none-eabi/13.2.1/../../../arm-none-eabi/lib/thumb/v7e-m+fp/hard/libc.a(libc_a-readr.o)
 .bss           0x00000000        0x0 /usr/lib/gcc/arm-none-eabi/13.2.1/../../../arm-none-eabi/lib/thumb/v7e-m+fp/hard/libc.a(libc_a-readr.o)
 .debug_info    0x00000000      0x7d3 /usr/lib/gcc/arm-none-eabi/13.2.1/../../../arm-none-eabi/lib/thumb/v7e-m+fp/hard/libc.a(libc_a-readr.o)
 .debug_abbrev  0x00000000      0x1ec /usr/lib/gcc/arm-none-eabi/13.2.1/../../../arm-none-eabi/lib/thumb/v7e-m+fp/hard/libc.a(libc_a-readr.o)
 .debug_loclists
                0x00000000       0x9e /usr/lib/gcc/arm-none-eabi/13.2.1/../../../arm-none-eabi/lib/thumb/v7e-m+fp/hard/libc.a(libc_a-readr.o)
 .debug_aranges
                0x00000000       0x20 /usr/lib/gcc/arm-none-eabi/13.2.1/../../../arm-none-eabi/lib/thumb/v7e-m+fp/hard/libc.a(libc_a-readr.o)
 .debug_line    0x00000000      0x198 /usr/lib/gcc/arm-none-eabi/13.2.1/../../../arm-none-eabi/lib/thumb/v7e-m+fp/hard/libc.a(libc_a-readr.o)
 .debug_str     0x00000000      0x4ab /usr/lib/gcc/arm-none-eabi/13.2.1/../../../arm-none-eabi/lib/thumb/v7e-m+fp/hard/libc.a(libc_a-readr.o)
 .comment       0x00000000       0x27 /usr/lib/gcc/arm-none-eabi/13.2.1/../../../arm-none-eabi/lib/thumb/v7e-m+fp/hard/libc.a(libc_a-readr.o)
 .debug_frame   0x00000000       0x2c /usr/lib/gcc/arm-none-eabi/13.2.1/../../../arm-none-eabi/lib/thumb/v7e-m+fp/hard/libc.a(libc_a-readr.o)
 .ARM.attributes
                0x00000000       0x34 /usr/lib/gcc/arm-none-eabi/13.2.1/../../../arm-none-eabi/lib/thumb/v7e-m+fp/hard/libc.a(libc_a-readr.o)
 .text          0x00000000       0x2c /usr/lib/gcc/arm-none-eabi/13.2.1/../../../arm-none-eabi/lib/thumb/v7e-m+fp/hard/libc.a(libc_a-lseekr.o)
 .data          0x00000000        0x0 /usr/lib/gcc/arm-none-eabi/13.2.1/../../../arm-none-eabi/lib/thumb/v7e-m+fp/hard/libc.a(libc_a-lseekr.o)
 .bss           0x00000000        0x0 /usr/lib/gcc/arm-none-eabi/13.2.1/../../../arm-none-eabi/lib/thumb/v7e-m+fp/hard/libc.a(libc_a-lseekr.o)
 .debug_info    0x00000000      0x7bc /usr/lib/gcc/arm-none-eabi/13.2.1/../../../arm-none-eabi/lib/thumb/v7e-m+fp/hard/libc.a(libc_a-lseekr.o)
 .debug_abbrev  0x00000000      0x200 /usr/lib/gcc/arm-none-eabi/13.2.1/../../../arm-none-eabi/lib/thumb/v7e-m+fp/hard/libc.a(libc_a-lseekr.o)
 .debug_loclists
                0x00000000       0x9e /usr/lib/gcc/arm-none-eabi/13.2.1/../../../arm-none-eabi/lib/thumb/v7e-m+fp/hard/libc.a(libc_a-lseekr.o)
 .debug_aranges
                0x00000000       0x20 /usr/lib/gcc/arm-none-eabi/13.2.1/../../../arm-none-eabi/lib/thumb/v7e-m+fp/hard/libc.a(libc_a-lseekr.o)
 .debug_line    0x00000000      0x199 /usr/lib/gcc/arm-none-eabi/13.2.1/../../../arm-none-eabi/lib/thumb/v7e-m+fp/hard/libc.a(libc_a-lseekr.o)
 .debug_str     0x00000000      0x4ab /usr/lib/gcc/arm-none-eabi/13.2.1/../../../arm-none-eabi/lib/thumb/v7e-m+fp/hard/libc.a(libc_a-lseekr.o)
 .comment       0x00000000       0x27 /usr/lib/gcc/arm-none-eabi/13.2.1/../../../arm-none-eabi/lib/thumb/v7e-m+fp/hard/libc.a(libc_a-lseekr.o)
 .debug_frame   0x00000000       0x2c /usr/lib/gcc/arm-none-eabi/13.2.1/../../../arm-none-eabi/lib/thumb/v7e-m+fp/hard/libc.a(libc_a-lseekr.o)
 .ARM.attributes
                0x00000000       0x34 /usr/lib/gcc/arm-none-eabi/13.2.1/../../../arm-none-eabi/lib/thumb/v7e-m+fp/hard/libc.a(libc_a-lseekr.o)
 .text          0x00000000       0x6c /usr/lib/gcc/arm-none-eabi/13.2.1/../../../arm-none-eabi/lib/thumb/v7e-m+fp/hard/libc.a(libc_a-reent.o)
 .data          0x00000000        0x0 /usr/lib/gcc/arm-none-eabi/13.2.1/../../../arm-none-eabi/lib/thumb/v7e-m+fp/hard/libc.a(libc_a-reent.o)
 .bss           0x00000000        0x4 /usr/lib/gcc/arm-none-eabi/13.2.1/../../../arm-none-eabi/lib/thumb/v7e-m+fp/hard/libc.a(libc_a-reent.o)
 .debug_info    0x00000000      0x831 /usr/lib/gcc/arm-none-eabi/13.2.1/../../../arm-none-eabi/lib/thumb/v7e-m+fp/hard/libc.a(libc_a-reent.o)
 .debug_abbrev  0x00000000      0x22a /usr/lib/gcc/arm-none-eabi/13.2.1/../../../arm-none-eabi/lib/thumb/v7e-m+fp/hard/libc.a(libc_a-reent.o)
 .debug_loclists
                0x00000000       0x6e /usr/lib/gcc/arm-none-eabi/13.2.1/../../../arm-none-eabi/lib/thumb/v7e-m+fp/hard/libc.a(libc_a-reent.o)
 .debug_aranges
                0x00000000       0x20 /usr/lib/gcc/arm-none-eabi/13.2.1/../../../arm-none-eabi/lib/thumb/v7e-m+fp/hard/libc.a(libc_a-reent.o)
 .debug_line    0x00000000      0x1f0 /usr/lib/gcc/arm-none-eabi/13.2.1/../../../arm-none-eabi/lib/thumb/v7e-m+fp/hard/libc.a(libc_a-reent.o)
 .debug_str     0x00000000      0x4c6 /usr/lib/gcc/arm-none-eabi/13.2.1/../../../arm-none-eabi/lib/thumb/v7e-m+fp/hard/libc.a(libc_a-reent.o)
 .comment       0x00000000       0x27 /usr/lib/gcc/arm-none-eabi/13.2.1/../../../arm-none-eabi/lib/thumb/v7e-m+fp/hard/libc.a(libc_a-reent.o)
 .debug_frame   0x00000000       0x3c /usr/lib/gcc/arm-none-eabi/13.2.1/../../../arm-none-eabi/lib/thumb/v7e-m+fp/hard/libc.a(libc_a-reent.o)
 .ARM.attributes
                0x00000000       0x34 /usr/lib/gcc/arm-none-eabi/13.2.1/../../../arm-none-eabi/lib/thumb/v7e-m+fp/hard/libc.a(libc_a-reent.o)
 .text          0x00000000       0x10 /usr/lib/gcc/arm-none-eabi/13.2.1/../../../arm-none-eabi/lib/thumb/v7e-m+fp/hard/libnosys.a(close.o)
 .data          0x00000000        0x0 /usr/lib/gcc/arm-none-eabi/13.2.1/../../../arm-none-eabi/lib/thumb/v7e-m+fp/hard/libnosys.a(close.o)
 .bss           0x00000000        0x0 /usr/lib/gcc/arm-none-eabi/13.2.1/../../../arm-none-eabi/lib/thumb/v7e-m+fp/hard/libnosys.a(close.o)
 .gnu.warning._close
                0x00000000        0x0 /usr/lib/gcc/arm-none-eabi/13.2.1/../../../arm-none-eabi/lib/thumb/v7e-m+fp/hard/libnosys.a(close.o)
 .debug_info    0x00000000       0xde /usr/lib/gcc/arm-none-eabi/13.2.1/../../../arm-none-eabi/lib/thumb/v7e-m+fp/hard/libnosys.a(close.o)
 .debug_abbrev  0x00000000       0x96 /usr/lib/gcc/arm-none-eabi/13.2.1/../../../arm-none-eabi/lib/thumb/v7e-m+fp/hard/libnosys.a(close.o)
 .debug_loclists
                0x00000000       0x24 /usr/lib/gcc/arm-none-eabi/13.2.1/../../../arm-none-eabi/lib/thumb/v7e-m+fp/hard/libnosys.a(close.o)
 .debug_aranges
                0x00000000       0x20 /usr/lib/gcc/arm-none-eabi/13.2.1/../../../arm-none-eabi/lib/thumb/v7e-m+fp/hard/libnosys.a(close.o)
 .debug_line    0x00000000       0x6d /usr/lib/gcc/arm-none-eabi/13.2.1/../../../arm-none-eabi/lib/thumb/v7e-m+fp/hard/libnosys.a(close.o)
 .debug_str     0x00000000      0x198 /usr/lib/gcc/arm-none-eabi/13.2.1/../../../arm-none-eabi/lib/thumb/v7e-m+fp/hard/libnosys.a(close.o)
 .comment       0x00000000       0x27 /usr/lib/gcc/arm-none-eabi/13.2.1/../../../arm-none-eabi/lib/thumb/v7e-m+fp/hard/libnosys.a(close.o)
 .debug_frame   0x00000000       0x20 /usr/lib/gcc/arm-none-eabi/13.2.1/../../../arm-none-eabi/lib/thumb/v7e-m+fp/hard/libnosys.a(close.o)
 .ARM.attributes
                0x00000000       0x34 /usr/lib/gcc/arm-none-eabi/13.2.1/../../../arm-none-eabi/lib/thumb/v7e-m+fp/hard/libnosys.a(close.o)
 .text          0x00000000       0x10 /usr/lib/gcc/arm-none-eabi/13.2.1/../../../arm-none-eabi/lib/thumb/v7e-m+fp/hard/libnosys.a(lseek.o)
 .data          0x00000000        0x0 /usr/lib/gcc/arm-none-eabi/13.2.1/../../../arm-none-eabi/lib/thumb/v7e-m+fp/hard/libnosys.a(lseek.o)
 .bss           0x00000000        0x0 /usr/lib/gcc/arm-none-eabi/13.2.1/../../../arm-none-eabi/lib/thumb/v7e-m+fp/hard/libnosys.a(lseek.o)
 .gnu.warning._lseek
                0x00000000        0x0 /usr/lib/gcc/arm-none-eabi/13.2.1/../../../arm-none-eabi/lib/thumb/v7e-m+fp/hard/libnosys.a(lseek.o)
 .debug_info    0x00000000      0x100 /usr/lib/gcc/arm-none-eabi/13.2.1/../../../arm-none-eabi/lib/thumb/v7e-m+fp/hard/libnosys.a(lseek.o)
 .debug_abbrev  0x00000000       0xbb /usr/lib/gcc/arm-none-eabi/13.2.1/../../../arm-none-eabi/lib/thumb/v7e-m+fp/hard/libnosys.a(lseek.o)
 .debug_loclists
                0x00000000       0x3c /usr/lib/gcc/arm-none-eabi/13.2.1/../../../arm-none-eabi/lib/thumb/v7e-m+fp/hard/libnosys.a(lseek.o)
 .debug_aranges
                0x00000000       0x20 /usr/lib/gcc/arm-none-eabi/13.2.1/../../../arm-none-eabi/lib/thumb/v7e-m+fp/hard/libnosys.a(lseek.o)
 .debug_line    0x00000000       0x6e /usr/lib/gcc/arm-none-eabi/13.2.1/../../../arm-none-eabi/lib/thumb/v7e-m+fp/hard/libnosys.a(lseek.o)
 .debug_str     0x00000000      0x196 /usr/lib/gcc/arm-none-eabi/13.2.1/../../../arm-none-eabi/lib/thumb/v7e-m+fp/hard/libnosys.a(lseek.o)
 .comment       0x00000000       0x27 /usr/lib/gcc/arm-none-eabi/13.2.1/../../../arm-none-eabi/lib/thumb/v7e-m+fp/hard/libnosys.a(lseek.o)
 .debug_frame   0x00000000       0x20 /usr/lib/gcc/arm-none-eabi/13.2.1/../../../arm-none-eabi/lib/thumb/v7e-m+fp/hard/libnosys.a(lseek.o)
 .ARM.attributes
                0x00000000       0x34 /usr/lib/gcc/arm-none-eabi/13.2.1/../../../arm-none-eabi/lib/thumb/v7e-m+fp/hard/libnosys.a(lseek.o)
 .text          0x00000000       0x10 /usr/lib/gcc/arm-none-eabi/13.2.1/../../../arm-none-eabi/lib/thumb/v7e-m+fp/hard/libnosys.a(read.o)
 .data          0x00000000        0x0 /usr/lib/gcc/arm-none-eabi/13.2.1/../../../arm-none-eabi/lib/thumb/v7e-m+fp/hard/libnosys.a(read.o)
 .bss           0x00000000        0x0 /usr/lib/gcc/arm-none-eabi/13.2.1/../../../arm-none-eabi/lib/thumb/v7e-m+fp/hard/libnosys.a(read.o)
 .gnu.warning._read
                0x00000000        0x0 /usr/lib/gcc/arm-none-eabi/13.2.1/../../../arm-none-eabi/lib/thumb/v7e-m+fp/hard/libnosys.a(read.o)
 .debug_info    0x00000000      0x106 /usr/lib/gcc/arm-none-eabi/13.2.1/../../../arm-none-eabi/lib/thumb/v7e-m+fp/hard/libnosys.a(read.o)
 .debug_abbrev  0x00000000       0xc4 /usr/lib/gcc/arm-none-eabi/13.2.1/../../../arm-none-eabi/lib/thumb/v7e-m+fp/hard/libnosys.a(read.o)
 .debug_loclists
                0x00000000       0x3c /usr/lib/gcc/arm-none-eabi/13.2.1/../../../arm-none-eabi/lib/thumb/v7e-m+fp/hard/libnosys.a(read.o)
 .debug_aranges
                0x00000000       0x20 /usr/lib/gcc/arm-none-eabi/13.2.1/../../../arm-none-eabi/lib/thumb/v7e-m+fp/hard/libnosys.a(read.o)
 .debug_line    0x00000000       0x6d /usr/lib/gcc/arm-none-eabi/13.2.1/../../../arm-none-eabi/lib/thumb/v7e-m+fp/hard/libnosys.a(read.o)
 .debug_str     0x00000000      0x193 /usr/lib/gcc/arm-none-eabi/13.2.1/../../../arm-none-eabi/lib/thumb/v7e-m+fp/hard/libnosys.a(read.o)
 .comment       0x00000000       0x27 /usr/lib/gcc/arm-none-eabi/13.2.1/../../../arm-none-eabi/lib/thumb/v7e-m+fp/hard/libnosys.a(read.o)
 .debug_frame   0x00000000       0x20 /usr/lib/gcc/arm-none-eabi/13.2.1/../../../arm-none-eabi/lib/thumb/v7e-m+fp/hard/libnosys.a(read.o)
 .ARM.attributes
                0x00000000       0x34 /usr/lib/gcc/arm-none-eabi/13.2.1/../../../arm-none-eabi/lib/thumb/v7e-m+fp/hard/libnosys.a(read.o)
 .text          0x00000000       0x1c /usr/lib/gcc/arm-none-eabi/13.2.1/../../../arm-none-eabi/lib/thumb/v7e-m+fp/hard/libnosys.a(sbrk.o)
 .data          0x00000000        0x0 /usr/lib/gcc/arm-none-eabi/13.2.1/../../../arm-none-eabi/lib/thumb/v7e-m+fp/hard/libnosys.a(sbrk.o)
 .bss           0x00000000        0x4 /usr/lib/gcc/arm-none-eabi/13.2.1/../../../arm-none-eabi/lib/thumb/v7e-m+fp/hard/libnosys.a(sbrk.o)
 .debug_info    0x00000000       0xac /usr/lib/gcc/arm-none-eabi/13.2.1/../../../arm-none-eabi/lib/thumb/v7e-m+fp/hard/libnosys.a(sbrk.o)
 .debug_abbrev  0x00000000       0xa1 /usr/lib/gcc/arm-none-eabi/13.2.1/../../../arm-none-eabi/lib/thumb/v7e-m+fp/hard/libnosys.a(sbrk.o)
 .debug_loclists
                0x00000000       0x30 /usr/lib/gcc/arm-none-eabi/13.2.1/../../../arm-none-eabi/lib/thumb/v7e-m+fp/hard/libnosys.a(sbrk.o)
 .debug_aranges
                0x00000000       0x20 /usr/lib/gcc/arm-none-eabi/13.2.1/../../../arm-none-eabi/lib/thumb/v7e-m+fp/hard/libnosys.a(sbrk.o)
 .debug_line    0x00000000       0x76 /usr/lib/gcc/arm-none-eabi/13.2.1/../../../arm-none-eabi/lib/thumb/v7e-m+fp/hard/libnosys.a(sbrk.o)
 .debug_str     0x00000000      0x11d /usr/lib/gcc/arm-none-eabi/13.2.1/../../../arm-none-eabi/lib/thumb/v7e-m+fp/hard/libnosys.a(sbrk.o)
 .comment       0x00000000       0x27 /usr/lib/gcc/arm-none-eabi/13.2.1/../../../arm-none-eabi/lib/thumb/v7e-m+fp/hard/libnosys.a(sbrk.o)
 .debug_frame   0x00000000       0x20 /usr/lib/gcc/arm-none-eabi/13.2.1/../../../arm-none-eabi/lib/thumb/v7e-m+fp/hard/libnosys.a(sbrk.o)
 .ARM.attributes
                0x00000000       0x34 /usr/lib/gcc/arm-none-eabi/13.2.1/../../../arm-none-eabi/lib/thumb/v7e-m+fp/hard/libnosys.a(sbrk.o)
 .text          0x00000000       0x10 /usr/lib/gcc/arm-none-eabi/13.2.1/../../../arm-none-eabi/lib/thumb/v7e-m+fp/hard/libnosys.a(write.o)
 .data          0x00000000        0x0 /usr/lib/gcc/arm-none-eabi/13.2.1/../../../arm-none-eabi/lib/thumb/v7e-m+fp/hard/libnosys.a(write.o)
 .bss           0x00000000        0x0 /usr/lib/gcc/arm-none-eabi/13.2.1/../../../arm-none-eabi/lib/thumb/v7e-m+fp/hard/libnosys.a(write.o)
 .gnu.warning._write
                0x00000000        0x0 /usr/lib/gcc/arm-none-eabi/13.2.1/../../../arm-none-eabi/lib/thumb/v7e-m+fp/hard/libnosys.a(write.o)
 .debug_info    0x00000000      0x106 /usr/lib/gcc/arm-none-eabi/13.2.1/../../../arm-none-eabi/lib/thumb/v7e-m+fp/hard/libnosys.a(write.o)
 .debug_abbrev  0x00000000       0xc4 /usr/lib/gcc/arm-none-eabi/13.2.1/../../../arm-none-eabi/lib/thumb/v7e-m+fp/hard/libnosys.a(write.o)
 .debug_loclists
                0x00000000       0x3c /usr/lib/gcc/arm-none-eabi/13.2.1/../../../arm-none-eabi/lib/thumb/v7e-m+fp/hard/libnosys.a(write.o)
 .debug_aranges
                0x00000000       0x20 /usr/lib/gcc/arm-none-eabi/13.2.1/../../../arm-none-eabi/lib/thumb/v7e-m+fp/hard/libnosys.a(write.o)
 .debug_line    0x00000000       0x6e /usr/lib/gcc/arm-none-eabi/13.2.1/../../../arm-none-eabi/lib/thumb/v7e-m+fp/hard/libnosys.a(write.o)
 .debug_str     0x00000000      0x196 /usr/lib/gcc/arm-none-eabi/13.2.1/../../../arm-none-eabi/lib/thumb/v7e-m+fp/hard/libnosys.a(write.o)
 .comment       0x00000000       0x27 /usr/lib/gcc/arm-none-eabi/13.2.1/../../../arm-none-eabi/lib/thumb/v7e-m+fp/hard/libnosys.a(write.o)
 .debug_frame   0x00000000       0x20 /usr/lib/gcc/arm-none-eabi/13.2.1/../../../arm-none-eabi/lib/thumb/v7e-m+fp/hard/libnosys.a(write.o)
 .ARM.attributes
                0x00000000       0x34 /usr/lib/gcc/arm-none-eabi/13.2.1/../../../arm-none-eabi/lib/thumb/v7e-m+fp/hard/libnosys.a(write.o)
 .data          0x00000000        0x0 /usr/lib/gcc/arm-none-eabi/13.2.1/../../../arm-none-eabi/lib/thumb/v7e-m+fp/hard/libnosys.a(_exit.o)
 .bss           0x00000000        0x0 /usr/lib/gcc/arm-none-eabi/13.2.1/../../../arm-none-eabi/lib/thumb/v7e-m+fp/hard/libnosys.a(_exit.o)
 .text          0x00000000        0x0 _build/build-tk_kb_18010/dfu_ble_svc.o
 .data          0x00000000        0x0 _build/build-tk_kb_18010/dfu_ble_svc.o
 .bss           0x00000000        0x0 _build/build-tk_kb_18010/dfu_ble_svc.o
 .text          0x00000000        0x0 _build/build-tk_kb_18010/dfu_init.o
 .data          0x00000000        0x0 _build/build-tk_kb_18010/dfu_init.o
 .bss           0x00000000        0x0 _build/build-tk_kb_18010/dfu_init.o
 .text          0x00000000        0x0 _build/build-tk_kb_18010/flash_nrf5x.o
 .data          0x00000000        0x0 _build/build-tk_kb_18010/flash_nrf5x.o
 .bss           0x00000000        0x0 _build/build-tk_kb_18010/flash_nrf5x.o
 .text          0x00000000        0x0 _build/build-tk_kb_18010/main.o
 .data          0x00000000        0x0 _build/build-tk_kb_18010/main.o
 .bss           0x00000000        0x0 _build/build-tk_kb_18010/main.o
 .text.assert_nrf_callback
                0x00000000       0x10 _build/build-tk_kb_18010/main.o
 .text          0x00000000        0x0 _build/build-tk_kb_18010/screen.o
 .data          0x00000000        0x0 _build/build-tk_kb_18010/screen.o
 .bss           0x00000000        0x0 _build/build-tk_kb_18010/screen.o
 .debug_info    0x00000000       0x73 _build/build-tk_kb_18010/screen.o
 .debug_abbrev  0x00000000       0x26 _build/build-tk_kb_18010/screen.o
 .debug_aranges
                0x00000000       0x18 _build/build-tk_kb_18010/screen.o
 .debug_line    0x00000000       0x2d _build/build-tk_kb_18010/screen.o
 .debug_str     0x00000000      0x1ce _build/build-tk_kb_18010/screen.o
 .comment       0x00000000       0x27 _build/build-tk_kb_18010/screen.o
 .ARM.attributes
                0x00000000       0x34 _build/build-tk_kb_18010/screen.o
 .text          0x00000000        0x0 _build/build-tk_kb_18010/images.o
 .data          0x00000000        0x0 _build/build-tk_kb_18010/images.o
 .bss           0x00000000        0x0 _build/build-tk_kb_18010/images.o
 .debug_info    0x00000000       0x73 _build/build-tk_kb_18010/images.o
 .debug_abbrev  0x00000000       0x26 _build/build-tk_kb_18010/images.o
 .debug_aranges
                0x00000000       0x18 _build/build-tk_kb_18010/images.o
 .debug_line    0x00000000       0x2d _build/build-tk_kb_18010/images.o
 .debug_str     0x00000000      0x1ce _build/build-tk_kb_18010/images.o
 .comment       0x00000000       0x27 _build/build-tk_kb_18010/images.o
 .ARM.attributes
                0x00000000       0x34 _build/build-tk_kb_18010/images.o
 .text          0x00000000        0x0 _build/build-tk_kb_18010/boards.o
 .data          0x00000000        0x0 _build/build-tk_kb_18010/boards.o
 .bss           0x00000000        0x0 _build/build-tk_kb_18010/boards.o
 .text          0x00000000        0x0 _build/build-tk_kb_18010/nrfx_power.o
 .data          0x00000000        0x0 _build/build-tk_kb_18010/nrfx_power.o
 .bss           0x00000000        0x0 _build/build-tk_kb_18010/nrfx_power.o
 .text.nrfx_power_pof_handler_get
                0x00000000        0xc _build/build-tk_kb_18010/nrfx_power.o
 .text.nrfx_power_usb_handler_get
                0x00000000        0xc _build/build-tk_kb_18010/nrfx_power.o
 .text.nrfx_power_uninit
                0x00000000       0x30 _build/build-tk_kb_18010/nrfx_power.o
 .text.nrfx_power_pof_init
                0x00000000        0xc _build/build-tk_kb_18010/nrfx_power.o
 .text.nrfx_power_pof_enable
                0x00000000       0x40 _build/build-tk_kb_18010/nrfx_power.o
 .text.nrfx_power_pof_disable
                0x00000000       0x1c _build/build-tk_kb_18010/nrfx_power.o
 .text.nrfx_power_pof_uninit
                0x00000000        0xc _build/build-tk_kb_18010/nrfx_power.o
 .text.nrfx_power_sleepevt_init
                0x00000000        0xc _build/build-tk_kb_18010/nrfx_power.o
 .text.nrfx_power_sleepevt_enable
                0x00000000       0x46 _build/build-tk_kb_18010/nrfx_power.o
 .text.nrfx_power_sleepevt_disable
                0x00000000        0xc _build/build-tk_kb_18010/nrfx_power.o
 .text.nrfx_power_sleepevt_uninit
                0x00000000        0xc _build/build-tk_kb_18010/nrfx_power.o
 .text.nrfx_power_usbevt_disable
                0x00000000        0xe _build/build-tk_kb_18010/nrfx_power.o
 .text.nrfx_power_usbevt_uninit
                0x00000000        0xc _build/build-tk_kb_18010/nrfx_power.o
 .text          0x00000000        0x0 _build/build-tk_kb_18010/nrfx_nvmc.o
 .data          0x00000000        0x0 _build/build-tk_kb_18010/nrfx_nvmc.o
 .bss           0x00000000        0x0 _build/build-tk_kb_18010/nrfx_nvmc.o
 .text.partial_word_create
                0x00000000       0x26 _build/build-tk_kb_18010/nrfx_nvmc.o
 .text.nrfx_nvmc_uicr_erase
                0x00000000       0x28 _build/build-tk_kb_18010/nrfx_nvmc.o
 .text.nrfx_nvmc_all_erase
                0x00000000       0x24 _build/build-tk_kb_18010/nrfx_nvmc.o
 .text.nrfx_nvmc_page_partial_erase_init
                0x00000000       0x3c _build/build-tk_kb_18010/nrfx_nvmc.o
 .text.nrfx_nvmc_page_partial_erase_continue
                0x00000000       0x48 _build/build-tk_kb_18010/nrfx_nvmc.o
 .text.nrfx_nvmc_byte_writable_check
                0x00000000        0xc _build/build-tk_kb_18010/nrfx_nvmc.o
 .text.nrfx_nvmc_word_writable_check
                0x00000000        0xc _build/build-tk_kb_18010/nrfx_nvmc.o
 .text.nrfx_nvmc_word_write
                0x00000000       0x1c _build/build-tk_kb_18010/nrfx_nvmc.o
 .text.nrfx_nvmc_byte_write
                0x00000000       0x20 _build/build-tk_kb_18010/nrfx_nvmc.o
 .text.nrfx_nvmc_bytes_write
                0x00000000       0x84 _build/build-tk_kb_18010/nrfx_nvmc.o
 .text.nrfx_nvmc_flash_size_get
                0x00000000        0xc _build/build-tk_kb_18010/nrfx_nvmc.o
 .text.nrfx_nvmc_flash_page_size_get
                0x00000000        0x8 _build/build-tk_kb_18010/nrfx_nvmc.o
 .text.nrfx_nvmc_flash_page_count_get
                0x00000000        0x8 _build/build-tk_kb_18010/nrfx_nvmc.o
 .data.m_partial_erase_page_addr
                0x00000000        0x4 _build/build-tk_kb_18010/nrfx_nvmc.o
 .bss.m_partial_erase_time_elapsed
                0x00000000        0x4 _build/build-tk_kb_18010/nrfx_nvmc.o
 .text          0x00000000        0x0 _build/build-tk_kb_18010/system_nrf52840.o
 .data          0x00000000        0x0 _build/build-tk_kb_18010/system_nrf52840.o
 .bss           0x00000000        0x0 _build/build-tk_kb_18010/system_nrf52840.o
 .text.SystemCoreClockUpdate
                0x00000000       0x10 _build/build-tk_kb_18010/system_nrf52840.o
 .text          0x00000000        0x0 _build/build-tk_kb_18010/bootloader.o
 .data          0x00000000        0x0 _build/build-tk_kb_18010/bootloader.o
 .bss           0x00000000        0x0 _build/build-tk_kb_18010/bootloader.o
 .text          0x00000000        0x0 _build/build-tk_kb_18010/bootloader_settings.o
 .data          0x00000000        0x0 _build/build-tk_kb_18010/bootloader_settings.o
 .bss           0x00000000        0x0 _build/build-tk_kb_18010/bootloader_settings.o
 .text.bootloader_mbr_addrs_populate
                0x00000000       0x32 _build/build-tk_kb_18010/bootloader_settings.o
 .mbrParamsPage
                0x00000000     0x1000 _build/build-tk_kb_18010/bootloader_settings.o
 .text          0x00000000        0x0 _build/build-tk_kb_18010/bootloader_util.o
 .data          0x00000000        0x0 _build/build-tk_kb_18010/bootloader_util.o
 .bss           0x00000000        0x0 _build/build-tk_kb_18010/bootloader_util.o
 .text          0x00000000        0x0 _build/build-tk_kb_18010/dfu_transport_serial.o
 .data          0x00000000        0x0 _build/build-tk_kb_18010/dfu_transport_serial.o
 .bss           0x00000000        0x0 _build/build-tk_kb_18010/dfu_transport_serial.o
 .text          0x00000000        0x0 _build/build-tk_kb_18010/dfu_transport_ble.o
 .data          0x00000000        0x0 _build/build-tk_kb_18010/dfu_transport_ble.o
 .bss           0x00000000        0x0 _build/build-tk_kb_18010/dfu_transport_ble.o
 .text          0x00000000        0x0 _build/build-tk_kb_18010/dfu_single_bank.o
 .data          0x00000000        0x0 _build/build-tk_kb_18010/dfu_single_bank.o
 .bss           0x00000000        0x0 _build/build-tk_kb_18010/dfu_single_bank.o
 .text.offset_calculate
                0x00000000       0x3c _build/build-tk_kb_18010/dfu_single_bank.o
 .text          0x00000000        0x0 _build/build-tk_kb_18010/ble_dfu.o
 .data          0x00000000        0x0 _build/build-tk_kb_18010/ble_dfu.o
 .bss           0x00000000        0x0 _build/build-tk_kb_18010/ble_dfu.o
 .text          0x00000000        0x0 _build/build-tk_kb_18010/ble_dis.o
 .data          0x00000000        0x0 _build/build-tk_kb_18010/ble_dis.o
 .bss           0x00000000        0x0 _build/build-tk_kb_18010/ble_dis.o
 .text          0x00000000        0x0 _build/build-tk_kb_18010/pstorage_raw.o
 .data          0x00000000        0x0 _build/build-tk_kb_18010/pstorage_raw.o
 .bss           0x00000000        0x0 _build/build-tk_kb_18010/pstorage_raw.o
 .text.pstorage_block_identifier_get
                0x00000000        0x4 _build/build-tk_kb_18010/pstorage_raw.o
 .text          0x00000000        0x0 _build/build-tk_kb_18010/app_timer.o
 .data          0x00000000        0x0 _build/build-tk_kb_18010/app_timer.o
 .bss           0x00000000        0x0 _build/build-tk_kb_18010/app_timer.o
 .text.app_timer_stop_all
                0x00000000       0x18 _build/build-tk_kb_18010/app_timer.o
 .text.app_timer_cnt_get
                0x00000000        0xc _build/build-tk_kb_18010/app_timer.o
 .text.app_timer_cnt_diff_compute
                0x00000000        0x8 _build/build-tk_kb_18010/app_timer.o
 .text.app_timer_pause
                0x00000000        0xc _build/build-tk_kb_18010/app_timer.o
 .text.app_timer_resume
                0x00000000        0xc _build/build-tk_kb_18010/app_timer.o
 .text          0x00000000        0x0 _build/build-tk_kb_18010/app_scheduler.o
 .data          0x00000000        0x0 _build/build-tk_kb_18010/app_scheduler.o
 .bss           0x00000000        0x0 _build/build-tk_kb_18010/app_scheduler.o
 .text.app_sched_queue_space_get
                0x00000000       0x34 _build/build-tk_kb_18010/app_scheduler.o
 .text          0x00000000        0x0 _build/build-tk_kb_18010/app_error.o
 .data          0x00000000        0x0 _build/build-tk_kb_18010/app_error.o
 .bss           0x00000000        0x0 _build/build-tk_kb_18010/app_error.o
 .text.app_error_handler
                0x00000000       0x1c _build/build-tk_kb_18010/app_error.o
 .text.app_error_save_and_stop
                0x00000000       0x58 _build/build-tk_kb_18010/app_error.o
 .bss.m_error_data.0
                0x00000000       0x20 _build/build-tk_kb_18010/app_error.o
 .text          0x00000000        0x0 _build/build-tk_kb_18010/app_util_platform.o
 .data          0x00000000        0x0 _build/build-tk_kb_18010/app_util_platform.o
 .bss           0x00000000        0x0 _build/build-tk_kb_18010/app_util_platform.o
 .text.app_util_disable_irq
                0x00000000       0x10 _build/build-tk_kb_18010/app_util_platform.o
 .text.app_util_enable_irq
                0x00000000       0x14 _build/build-tk_kb_18010/app_util_platform.o
 .text.privilege_level_get
                0x00000000       0x1a _build/build-tk_kb_18010/app_util_platform.o
 .text.current_int_priority_get
                0x00000000       0x38 _build/build-tk_kb_18010/app_util_platform.o
 .bss.m_in_critical_region
                0x00000000        0x4 _build/build-tk_kb_18010/app_util_platform.o
 .text          0x00000000        0x0 _build/build-tk_kb_18010/crc16.o
 .data          0x00000000        0x0 _build/build-tk_kb_18010/crc16.o
 .bss           0x00000000        0x0 _build/build-tk_kb_18010/crc16.o
 .text          0x00000000        0x0 _build/build-tk_kb_18010/hci_mem_pool.o
 .data          0x00000000        0x0 _build/build-tk_kb_18010/hci_mem_pool.o
 .bss           0x00000000        0x0 _build/build-tk_kb_18010/hci_mem_pool.o
 .text.hci_mem_pool_tx_alloc
                0x00000000       0x24 _build/build-tk_kb_18010/hci_mem_pool.o
 .text.hci_mem_pool_tx_free
                0x00000000        0xc _build/build-tk_kb_18010/hci_mem_pool.o
 .bss.tx_buffer.0
                0x00000000      0x258 _build/build-tk_kb_18010/hci_mem_pool.o
 .text          0x00000000        0x0 _build/build-tk_kb_18010/hci_slip.o
 .data          0x00000000        0x0 _build/build-tk_kb_18010/hci_slip.o
 .bss           0x00000000        0x0 _build/build-tk_kb_18010/hci_slip.o
 .text          0x00000000        0x0 _build/build-tk_kb_18010/hci_transport.o
 .data          0x00000000        0x0 _build/build-tk_kb_18010/hci_transport.o
 .bss           0x00000000        0x0 _build/build-tk_kb_18010/hci_transport.o
 .text.hci_transport_tx_done_register
                0x00000000       0x28 _build/build-tk_kb_18010/hci_transport.o
 .text.hci_transport_tx_alloc
                0x00000000       0x12 _build/build-tk_kb_18010/hci_transport.o
 .text.hci_transport_tx_free
                0x00000000        0x4 _build/build-tk_kb_18010/hci_transport.o
 .text.hci_transport_pkt_write
                0x00000000       0xbc _build/build-tk_kb_18010/hci_transport.o
 .text          0x00000000        0x0 _build/build-tk_kb_18010/nrf_assert.o
 .data          0x00000000        0x0 _build/build-tk_kb_18010/nrf_assert.o
 .bss           0x00000000        0x0 _build/build-tk_kb_18010/nrf_assert.o
 .text.assert_nrf_callback
                0x00000000       0x1a _build/build-tk_kb_18010/nrf_assert.o
 .debug_info    0x00000000      0x154 _build/build-tk_kb_18010/nrf_assert.o
 .debug_abbrev  0x00000000       0xd9 _build/build-tk_kb_18010/nrf_assert.o
 .debug_loclists
                0x00000000       0x56 _build/build-tk_kb_18010/nrf_assert.o
 .debug_aranges
                0x00000000       0x20 _build/build-tk_kb_18010/nrf_assert.o
 .debug_rnglists
                0x00000000       0x13 _build/build-tk_kb_18010/nrf_assert.o
 .debug_line    0x00000000       0xd0 _build/build-tk_kb_18010/nrf_assert.o
 .debug_str     0x00000000      0x26f _build/build-tk_kb_18010/nrf_assert.o
 .comment       0x00000000       0x27 _build/build-tk_kb_18010/nrf_assert.o
 .debug_frame   0x00000000       0x28 _build/build-tk_kb_18010/nrf_assert.o
 .ARM.attributes
                0x00000000       0x34 _build/build-tk_kb_18010/nrf_assert.o
 .text          0x00000000        0x0 _build/build-tk_kb_18010/pinconfig.o
 .data          0x00000000        0x0 _build/build-tk_kb_18010/pinconfig.o
 .bss           0x00000000        0x0 _build/build-tk_kb_18010/pinconfig.o
 .text          0x00000000        0x0 _build/build-tk_kb_18010/msc_uf2.o
 .data          0x00000000        0x0 _build/build-tk_kb_18010/msc_uf2.o
 .bss           0x00000000        0x0 _build/build-tk_kb_18010/msc_uf2.o
 .text          0x00000000        0x0 _build/build-tk_kb_18010/usb_desc.o
 .data          0x00000000        0x0 _build/build-tk_kb_18010/usb_desc.o
 .bss           0x00000000        0x0 _build/build-tk_kb_18010/usb_desc.o
 .text          0x00000000        0x0 _build/build-tk_kb_18010/usb.o
 .data          0x00000000        0x0 _build/build-tk_kb_18010/usb.o
 .bss           0x00000000        0x0 _build/build-tk_kb_18010/usb.o
 .text          0x00000000        0x0 _build/build-tk_kb_18010/ghostfat.o
 .data          0x00000000        0x0 _build/build-tk_kb_18010/ghostfat.o
 .bss           0x00000000        0x0 _build/build-tk_kb_18010/ghostfat.o
 .text          0x00000000        0x0 _build/build-tk_kb_18010/dcd_nrf5x.o
 .data          0x00000000        0x0 _build/build-tk_kb_18010/dcd_nrf5x.o
 .bss           0x00000000        0x0 _build/build-tk_kb_18010/dcd_nrf5x.o
 .text.dcd_remote_wakeup
                0x00000000       0x10 _build/build-tk_kb_18010/dcd_nrf5x.o
 .text.dcd_disconnect
                0x00000000       0x14 _build/build-tk_kb_18010/dcd_nrf5x.o
 .text.dcd_connect
                0x00000000       0x10 _build/build-tk_kb_18010/dcd_nrf5x.o
 .text.dcd_edpt_close
                0x00000000       0xb0 _build/build-tk_kb_18010/dcd_nrf5x.o
 .text          0x00000000        0x0 _build/build-tk_kb_18010/tusb_fifo.o
 .data          0x00000000        0x0 _build/build-tk_kb_18010/tusb_fifo.o
 .bss           0x00000000        0x0 _build/build-tk_kb_18010/tusb_fifo.o
 .text.tu_fifo_full
                0x00000000       0x24 _build/build-tk_kb_18010/tusb_fifo.o
 .text.tu_fifo_overflowed
                0x00000000       0x26 _build/build-tk_kb_18010/tusb_fifo.o
 .text.tu_fifo_correct_read_pointer
                0x00000000        0x8 _build/build-tk_kb_18010/tusb_fifo.o
 .text.tu_fifo_read_n_const_addr_full_words
                0x00000000       0x2c _build/build-tk_kb_18010/tusb_fifo.o
 .text.tu_fifo_peek
                0x00000000        0xc _build/build-tk_kb_18010/tusb_fifo.o
 .text.tu_fifo_peek_n
                0x00000000       0x1e _build/build-tk_kb_18010/tusb_fifo.o
 .text.tu_fifo_write_n_const_addr_full_words
                0x00000000        0xc _build/build-tk_kb_18010/tusb_fifo.o
 .text.tu_fifo_advance_write_pointer
                0x00000000       0x12 _build/build-tk_kb_18010/tusb_fifo.o
 .text.tu_fifo_advance_read_pointer
                0x00000000       0x12 _build/build-tk_kb_18010/tusb_fifo.o
 .text.tu_fifo_get_read_info
                0x00000000       0x76 _build/build-tk_kb_18010/tusb_fifo.o
 .text.tu_fifo_get_write_info
                0x00000000       0x64 _build/build-tk_kb_18010/tusb_fifo.o
 .text          0x00000000        0x0 _build/build-tk_kb_18010/usbd.o
 .data          0x00000000        0x0 _build/build-tk_kb_18010/usbd.o
 .bss           0x00000000        0x0 _build/build-tk_kb_18010/usbd.o
 .text.tud_speed_get
                0x00000000        0xc _build/build-tk_kb_18010/usbd.o
 .text.tud_connected
                0x00000000       0x10 _build/build-tk_kb_18010/usbd.o
 .text.tud_remote_wakeup
                0x00000000       0x2c _build/build-tk_kb_18010/usbd.o
 .text.tud_disconnect
                0x00000000       0x14 _build/build-tk_kb_18010/usbd.o
 .text.tud_connect
                0x00000000       0x14 _build/build-tk_kb_18010/usbd.o
 .text.tud_task_event_ready
                0x00000000       0x20 _build/build-tk_kb_18010/usbd.o
 .text.usbd_edpt_xfer_fifo
                0x00000000       0x50 _build/build-tk_kb_18010/usbd.o
 .text.usbd_edpt_close
                0x00000000       0x58 _build/build-tk_kb_18010/usbd.o
 .text          0x00000000        0x0 _build/build-tk_kb_18010/usbd_control.o
 .data          0x00000000        0x0 _build/build-tk_kb_18010/usbd_control.o
 .bss           0x00000000        0x0 _build/build-tk_kb_18010/usbd_control.o
 .text          0x00000000        0x0 _build/build-tk_kb_18010/cdc_device.o
 .data          0x00000000        0x0 _build/build-tk_kb_18010/cdc_device.o
 .bss           0x00000000        0x0 _build/build-tk_kb_18010/cdc_device.o
 .text.tud_cdc_n_connected
                0x00000000       0x2c _build/build-tk_kb_18010/cdc_device.o
 .text.tud_cdc_n_get_line_state
                0x00000000       0x14 _build/build-tk_kb_18010/cdc_device.o
 .text.tud_cdc_n_get_line_coding
                0x00000000       0x20 _build/build-tk_kb_18010/cdc_device.o
 .text.tud_cdc_n_set_wanted_char
                0x00000000       0x14 _build/build-tk_kb_18010/cdc_device.o
 .text.tud_cdc_n_peek
                0x00000000       0x14 _build/build-tk_kb_18010/cdc_device.o
 .text.tud_cdc_n_read_flush
                0x00000000       0x24 _build/build-tk_kb_18010/cdc_device.o
 .text.tud_cdc_n_write_available
                0x00000000       0x18 _build/build-tk_kb_18010/cdc_device.o
 .text.tud_cdc_n_write_clear
                0x00000000       0x14 _build/build-tk_kb_18010/cdc_device.o
 .text          0x00000000        0x0 _build/build-tk_kb_18010/msc_device.o
 .data          0x00000000        0x0 _build/build-tk_kb_18010/msc_device.o
 .bss           0x00000000        0x0 _build/build-tk_kb_18010/msc_device.o
 .text          0x00000000        0x0 _build/build-tk_kb_18010/tusb.o
 .data          0x00000000        0x0 _build/build-tk_kb_18010/tusb.o
 .bss           0x00000000        0x0 _build/build-tk_kb_18010/tusb.o
 .text.tu_desc_get_interface_total_len
                0x00000000       0x36 _build/build-tk_kb_18010/tusb.o
 .data          0x00000000        0x0 _build/build-tk_kb_18010/gcc_startup_nrf52840.o
 .bss           0x00000000        0x0 _build/build-tk_kb_18010/gcc_startup_nrf52840.o
 .data          0x00000000        0x0 /usr/lib/gcc/arm-none-eabi/13.2.1/../../../arm-none-eabi/lib/thumb/v7e-m+fp/hard/libc_nano.a(libc_a-strcat.o)
 .bss           0x00000000        0x0 /usr/lib/gcc/arm-none-eabi/13.2.1/../../../arm-none-eabi/lib/thumb/v7e-m+fp/hard/libc_nano.a(libc_a-strcat.o)
 .data          0x00000000        0x0 /usr/lib/gcc/arm-none-eabi/13.2.1/../../../arm-none-eabi/lib/thumb/v7e-m+fp/hard/libc_nano.a(libc_a-strcpy.o)
 .bss           0x00000000        0x0 /usr/lib/gcc/arm-none-eabi/13.2.1/../../../arm-none-eabi/lib/thumb/v7e-m+fp/hard/libc_nano.a(libc_a-strcpy.o)
 .data          0x00000000        0x0 /usr/lib/gcc/arm-none-eabi/13.2.1/../../../arm-none-eabi/lib/thumb/v7e-m+fp/hard/libc_nano.a(libc_a-utoa.o)
 .bss           0x00000000        0x0 /usr/lib/gcc/arm-none-eabi/13.2.1/../../../arm-none-eabi/lib/thumb/v7e-m+fp/hard/libc_nano.a(libc_a-utoa.o)
 .data          0x00000000        0x0 /usr/lib/gcc/arm-none-eabi/13.2.1/../../../arm-none-eabi/lib/thumb/v7e-m+fp/hard/libc_nano.a(libc_a-strlen.o)
 .bss           0x00000000        0x0 /usr/lib/gcc/arm-none-eabi/13.2.1/../../../arm-none-eabi/lib/thumb/v7e-m+fp/hard/libc_nano.a(libc_a-strlen.o)
 .ARM.extab     0x00000000        0x0 /usr/lib/gcc/arm-none-eabi/13.2.1/../../../arm-none-eabi/lib/thumb/v7e-m+fp/hard/libc_nano.a(libc_a-strlen.o)
 .data          0x00000000        0x0 /usr/lib/gcc/arm-none-eabi/13.2.1/../../../arm-none-eabi/lib/thumb/v7e-m+fp/hard/libc_nano.a(libc_a-memmove.o)
 .bss           0x00000000        0x0 /usr/lib/gcc/arm-none-eabi/13.2.1/../../../arm-none-eabi/lib/thumb/v7e-m+fp/hard/libc_nano.a(libc_a-memmove.o)
 .data          0x00000000        0x0 /usr/lib/gcc/arm-none-eabi/13.2.1/../../../arm-none-eabi/lib/thumb/v7e-m+fp/hard/libc_nano.a(libc_a-memcpy.o)
 .bss           0x00000000        0x0 /usr/lib/gcc/arm-none-eabi/13.2.1/../../../arm-none-eabi/lib/thumb/v7e-m+fp/hard/libc_nano.a(libc_a-memcpy.o)
 .ARM.extab     0x00000000        0x0 /usr/lib/gcc/arm-none-eabi/13.2.1/../../../arm-none-eabi/lib/thumb/v7e-m+fp/hard/libc_nano.a(libc_a-memcpy.o)
 .data          0x00000000        0x0 /usr/lib/gcc/arm-none-eabi/13.2.1/../../../arm-none-eabi/lib/thumb/v7e-m+fp/hard/libc_nano.a(libc_a-memcmp.o)
 .bss           0x00000000        0x0 /usr/lib/gcc/arm-none-eabi/13.2.1/../../../arm-none-eabi/lib/thumb/v7e-m+fp/hard/libc_nano.a(libc_a-memcmp.o)
 .text          0x00000000       0xa0 /usr/lib/gcc/arm-none-eabi/13.2.1/thumb/v7e-m+fp/hard/libgcc.a(_aeabi_ldivmod.o)
 .data          0x00000000        0x0 /usr/lib/gcc/arm-none-eabi/13.2.1/thumb/v7e-m+fp/hard/libgcc.a(_aeabi_ldivmod.o)
 .bss           0x00000000        0x0 /usr/lib/gcc/arm-none-eabi/13.2.1/thumb/v7e-m+fp/hard/libgcc.a(_aeabi_ldivmod.o)
 .debug_line    0x00000000       0x6c /usr/lib/gcc/arm-none-eabi/13.2.1/thumb/v7e-m+fp/hard/libgcc.a(_aeabi_ldivmod.o)
 .debug_line_str
                0x00000000       0x97 /usr/lib/gcc/arm-none-eabi/13.2.1/thumb/v7e-m+fp/hard/libgcc.a(_aeabi_ldivmod.o)
 .debug_info    0x00000000       0x25 /usr/lib/gcc/arm-none-eabi/13.2.1/thumb/v7e-m+fp/hard/libgcc.a(_aeabi_ldivmod.o)
 .debug_abbrev  0x00000000       0x14 /usr/lib/gcc/arm-none-eabi/13.2.1/thumb/v7e-m+fp/hard/libgcc.a(_aeabi_ldivmod.o)
 .debug_aranges
                0x00000000       0x20 /usr/lib/gcc/arm-none-eabi/13.2.1/thumb/v7e-m+fp/hard/libgcc.a(_aeabi_ldivmod.o)
 .debug_str     0x00000000       0xa3 /usr/lib/gcc/arm-none-eabi/13.2.1/thumb/v7e-m+fp/hard/libgcc.a(_aeabi_ldivmod.o)
 .debug_frame   0x00000000       0x44 /usr/lib/gcc/arm-none-eabi/13.2.1/thumb/v7e-m+fp/hard/libgcc.a(_aeabi_ldivmod.o)
 .ARM.attributes
                0x00000000       0x22 /usr/lib/gcc/arm-none-eabi/13.2.1/thumb/v7e-m+fp/hard/libgcc.a(_aeabi_ldivmod.o)
 .data          0x00000000        0x0 /usr/lib/gcc/arm-none-eabi/13.2.1/thumb/v7e-m+fp/hard/libgcc.a(_aeabi_uldivmod.o)
 .bss           0x00000000        0x0 /usr/lib/gcc/arm-none-eabi/13.2.1/thumb/v7e-m+fp/hard/libgcc.a(_aeabi_uldivmod.o)
 .data          0x00000000        0x0 /usr/lib/gcc/arm-none-eabi/13.2.1/thumb/v7e-m+fp/hard/libgcc.a(_udivmoddi4.o)
 .bss           0x00000000        0x0 /usr/lib/gcc/arm-none-eabi/13.2.1/thumb/v7e-m+fp/hard/libgcc.a(_udivmoddi4.o)
 .ARM.extab     0x00000000        0x0 /usr/lib/gcc/arm-none-eabi/13.2.1/thumb/v7e-m+fp/hard/libgcc.a(_udivmoddi4.o)
 .data          0x00000000        0x0 /usr/lib/gcc/arm-none-eabi/13.2.1/thumb/v7e-m+fp/hard/libgcc.a(_dvmd_tls.o)
 .bss           0x00000000        0x0 /usr/lib/gcc/arm-none-eabi/13.2.1/thumb/v7e-m+fp/hard/libgcc.a(_dvmd_tls.o)
 .text          0x00000000        0x0 /usr/lib/gcc/arm-none-eabi/13.2.1/thumb/v7e-m+fp/hard/crtend.o
 .data          0x00000000        0x0 /usr/lib/gcc/arm-none-eabi/13.2.1/thumb/v7e-m+fp/hard/crtend.o
 .bss           0x00000000        0x0 /usr/lib/gcc/arm-none-eabi/13.2.1/thumb/v7e-m+fp/hard/crtend.o
 .rodata        0x00000000       0x24 /usr/lib/gcc/arm-none-eabi/13.2.1/thumb/v7e-m+fp/hard/crtend.o
 .text          0x00000000        0x0 /usr/lib/gcc/arm-none-eabi/13.2.1/thumb/v7e-m+fp/hard/crtn.o
 .data          0x00000000        0x0 /usr/lib/gcc/arm-none-eabi/13.2.1/thumb/v7e-m+fp/hard/crtn.o
 .bss           0x00000000        0x0 /usr/lib/gcc/arm-none-eabi/13.2.1/thumb/v7e-m+fp/hard/crtn.o

Memory Configuration

Name             Origin             Length             Attributes
FLASH            0x000f4000         0x00009800         xr
BOOTLOADER_CONFIG 0x000fd800         0x00000800         r
MBR_PARAMS_PAGE  0x000fe000         0x00001000         rw
BOOTLOADER_SETTINGS 0x000ff000         0x00001000         rw
RAM              0x20008000         0x00038000         xrw
DBL_RESET        0x20007f7c         0x00000004         xrw
NOINIT           0x20007f80         0x00000080         xrw
UICR_BOOTLOADER  0x10001014         0x00000004         r
UICR_MBR_PARAM_PAGE 0x10001018         0x00000004         r
*default*        0x00000000         0xffffffff

Linker script and memory map

LOAD /usr/lib/gcc/arm-none-eabi/13.2.1/thumb/v7e-m+fp/hard/crti.o
LOAD /usr/lib/gcc/arm-none-eabi/13.2.1/thumb/v7e-m+fp/hard/crtbegin.o
LOAD /usr/lib/gcc/arm-none-eabi/13.2.1/../../../arm-none-eabi/lib/thumb/v7e-m+fp/hard/crt0.o
START GROUP
LOAD /usr/lib/gcc/arm-none-eabi/13.2.1/thumb/v7e-m+fp/hard/libgcc.a
LOAD /usr/lib/gcc/arm-none-eabi/13.2.1/../../../arm-none-eabi/lib/thumb/v7e-m+fp/hard/libc.a
LOAD /usr/lib/gcc/arm-none-eabi/13.2.1/../../../arm-none-eabi/lib/thumb/v7e-m+fp/hard/libnosys.a
END GROUP

.fs_data_out    0x00000000        0x0
                [!provide]                        PROVIDE (__start_fs_data = .)
 *(fs_data)
                [!provide]                        PROVIDE (__stop_fs_data = .)

.bootloaderConfig
                0x000fd800       0x58
 *(.bootloaderConfig)
 .bootloaderConfig
                0x000fd800       0x58 _build/build-tk_kb_18010/pinconfig.o
                0x000fd800                bootloaderConfig

.bootloaderSettings
                0x000ff000     0x1000
 .bootloaderSettings
                0x000ff000     0x1000 _build/build-tk_kb_18010/bootloader_settings.o
                0x000ff000                m_boot_settings

.uicrBootStartAddress
                0x10001014        0x4
 *(.uicrBootStartAddress)
 .uicrBootStartAddress
                0x10001014        0x4 _build/build-tk_kb_18010/bootloader_settings.o
                0x10001014                m_uicr_bootloader_start_address

.mbrParamsPage

.uicrMbrParamsPageAddress
                0x10001018        0x4
 *(.uicrMbrParamsPageAddress)
 .uicrMbrParamsPageAddress
                0x10001018        0x4 _build/build-tk_kb_18010/bootloader_settings.o
                0x10001018                m_uicr_mbr_params_page_address

.dbl_reset

.noinit         0x20007f80       0x3e
 .noinit        0x20007f80       0x3e _build/build-tk_kb_18010/dfu_ble_svc.o

.text           0x000f4000     0x7db8
 *(.isr_vector)
 .isr_vector    0x000f4000      0x200 _build/build-tk_kb_18010/gcc_startup_nrf52840.o
                0x000f4000                __isr_vector
 *(.text*)
 .text          0x000f4200       0x88 /usr/lib/gcc/arm-none-eabi/13.2.1/thumb/v7e-m+fp/hard/crtbegin.o
 .text          0x000f4288       0x70 /usr/lib/gcc/arm-none-eabi/13.2.1/../../../arm-none-eabi/lib/thumb/v7e-m+fp/hard/crt0.o
                0x000f4288                _stack_init
                0x000f4290                _mainCRTStartup
                0x000f4290                _start
 .text          0x000f42f8       0xa4 /usr/lib/gcc/arm-none-eabi/13.2.1/../../../arm-none-eabi/lib/thumb/v7e-m+fp/hard/libc.a(libc_a-memset.o)
                0x000f42f8                memset
 .text          0x000f439c       0x50 /usr/lib/gcc/arm-none-eabi/13.2.1/../../../arm-none-eabi/lib/thumb/v7e-m+fp/hard/libc.a(libc_a-init.o)
                0x000f439c                __libc_init_array
 .text          0x000f43ec       0x1c /usr/lib/gcc/arm-none-eabi/13.2.1/../../../arm-none-eabi/lib/thumb/v7e-m+fp/hard/libc.a(libc_a-exit.o)
                0x000f43ec                exit
 .text          0x000f4408        0xc /usr/lib/gcc/arm-none-eabi/13.2.1/../../../arm-none-eabi/lib/thumb/v7e-m+fp/hard/libc.a(libc_a-atexit.o)
                0x000f4408                atexit
 .text          0x000f4414       0x28 /usr/lib/gcc/arm-none-eabi/13.2.1/../../../arm-none-eabi/lib/thumb/v7e-m+fp/hard/libc.a(libc_a-fini.o)
                0x000f4414                __libc_fini_array
 .text          0x000f443c       0xb0 /usr/lib/gcc/arm-none-eabi/13.2.1/../../../arm-none-eabi/lib/thumb/v7e-m+fp/hard/libc.a(libc_a-__call_atexit.o)
                0x000f443c                __call_exitprocs
 .text.startup  0x000f44ec       0x14 /usr/lib/gcc/arm-none-eabi/13.2.1/../../../arm-none-eabi/lib/thumb/v7e-m+fp/hard/libc.a(libc_a-__call_atexit.o)
 .text          0x000f4500       0x64 /usr/lib/gcc/arm-none-eabi/13.2.1/../../../arm-none-eabi/lib/thumb/v7e-m+fp/hard/libc.a(libc_a-__atexit.o)
                0x000f4500                __register_exitproc
 .text          0x000f4564        0x4 /usr/lib/gcc/arm-none-eabi/13.2.1/../../../arm-none-eabi/lib/thumb/v7e-m+fp/hard/libnosys.a(_exit.o)
                0x000f4564                _exit
 .text.C_SVC_Handler
                0x000f4568       0x4c _build/build-tk_kb_18010/dfu_ble_svc.o
                0x000f4568                C_SVC_Handler
 .text.SVC_Handler
                0x000f45b4       0x24 _build/build-tk_kb_18010/dfu_ble_svc.o
                0x000f45b4                SVC_Handler
 .text.dfu_ble_peer_data_get
                0x000f45d8       0x44 _build/build-tk_kb_18010/dfu_ble_svc.o
                0x000f45d8                dfu_ble_peer_data_get
 .text.dfu_init_prevalidate
                0x000f461c       0x74 _build/build-tk_kb_18010/dfu_init.o
                0x000f461c                dfu_init_prevalidate
 .text.dfu_init_postvalidate
                0x000f4690       0x1c _build/build-tk_kb_18010/dfu_init.o
                0x000f4690                dfu_init_postvalidate
 .text.flash_nrf5x_flush
                0x000f46ac       0x3c _build/build-tk_kb_18010/flash_nrf5x.o
                0x000f46ac                flash_nrf5x_flush
 .text.flash_nrf5x_write
                0x000f46e8       0x50 _build/build-tk_kb_18010/flash_nrf5x.o
                0x000f46e8                flash_nrf5x_write
 .text.NVIC_SystemReset
                0x000f4738       0x24 _build/build-tk_kb_18010/main.o
 .text.sd_evt_get
                0x000f475c        0x4 _build/build-tk_kb_18010/main.o
 .text.sd_softdevice_enable
                0x000f4760        0x4 _build/build-tk_kb_18010/main.o
 .text.sd_softdevice_disable
                0x000f4764        0x4 _build/build-tk_kb_18010/main.o
 .text.sd_softdevice_vector_table_base_set
                0x000f4768        0x4 _build/build-tk_kb_18010/main.o
 .text.sd_mbr_command
                0x000f476c        0x4 _build/build-tk_kb_18010/main.o
 .text.sd_ble_enable
                0x000f4770        0x4 _build/build-tk_kb_18010/main.o
 .text.sd_ble_cfg_set
                0x000f4774        0x4 _build/build-tk_kb_18010/main.o
 .text.sd_ble_evt_get
                0x000f4778        0x4 _build/build-tk_kb_18010/main.o
 .text.mbr_init_sd
                0x000f477c       0x1a _build/build-tk_kb_18010/main.o
 .text.app_error_fault_handler
                0x000f4796       0x14 _build/build-tk_kb_18010/main.o
                0x000f4796                app_error_fault_handler
 *fill*         0x000f47aa        0x2 
 .text.is_ota   0x000f47ac        0xc _build/build-tk_kb_18010/main.o
                0x000f47ac                is_ota
 .text.startup.main
                0x000f47b8      0x328 _build/build-tk_kb_18010/main.o
                0x000f47b8                main
 .text.proc_ble
                0x000f4ae0       0x50 _build/build-tk_kb_18010/main.o
                0x000f4ae0                proc_ble
 .text.proc_soc
                0x000f4b30       0x30 _build/build-tk_kb_18010/main.o
                0x000f4b30                proc_soc
 .text.proc_sd_task
                0x000f4b60       0x14 _build/build-tk_kb_18010/main.o
                0x000f4b60                proc_sd_task
 .text.SWI2_EGU2_IRQHandler
                0x000f4b74       0x10 _build/build-tk_kb_18010/main.o
                0x000f4b74                SWI2_EGU2_IRQHandler
 .text.button_init
                0x000f4b84       0x24 _build/build-tk_kb_18010/boards.o
                0x000f4b84                button_init
 .text.button_pressed
                0x000f4ba8       0x24 _build/build-tk_kb_18010/boards.o
                0x000f4ba8                button_pressed
 .text.board_init2
                0x000f4bcc        0x2 _build/build-tk_kb_18010/boards.o
                0x000f4bcc                board_init2
 .text.board_teardown2
                0x000f4bce        0x2 _build/build-tk_kb_18010/boards.o
                0x000f4bce                board_teardown2
 .text.pwm_teardown
                0x000f4bd0       0x3e _build/build-tk_kb_18010/boards.o
                0x000f4bd0                pwm_teardown
 *fill*         0x000f4c0e        0x2 
 .text.led_pwm_init
                0x000f4c10       0x7c _build/build-tk_kb_18010/boards.o
                0x000f4c10                led_pwm_init
 .text.board_init
                0x000f4c8c       0x8c _build/build-tk_kb_18010/boards.o
                0x000f4c8c                board_init
 .text.led_pwm_teardown
                0x000f4d18        0xc _build/build-tk_kb_18010/boards.o
                0x000f4d18                led_pwm_teardown
 .text.board_teardown
                0x000f4d24       0x6c _build/build-tk_kb_18010/boards.o
                0x000f4d24                board_teardown
 .text.led_pwm_duty_cycle
                0x000f4d90       0x28 _build/build-tk_kb_18010/boards.o
                0x000f4d90                led_pwm_duty_cycle
 .text.led_tick
                0x000f4db8       0x34 _build/build-tk_kb_18010/boards.o
                0x000f4db8                led_tick
 .text.SysTick_Handler
                0x000f4dec       0x10 _build/build-tk_kb_18010/boards.o
                0x000f4dec                SysTick_Handler
 .text.led_state
                0x000f4dfc       0x78 _build/build-tk_kb_18010/boards.o
                0x000f4dfc                led_state
 .text.nrf_power_event_get_and_clear.constprop.0
                0x000f4e74       0x20 _build/build-tk_kb_18010/nrfx_power.o
 .text.nrfx_power_init
                0x000f4e94       0x50 _build/build-tk_kb_18010/nrfx_power.o
                0x000f4e94                nrfx_power_init
 .text.nrfx_power_usbevt_init
                0x000f4ee4        0xc _build/build-tk_kb_18010/nrfx_power.o
                0x000f4ee4                nrfx_power_usbevt_init
 .text.nrfx_power_usbevt_enable
                0x000f4ef0        0xe _build/build-tk_kb_18010/nrfx_power.o
                0x000f4ef0                nrfx_power_usbevt_enable
 *fill*         0x000f4efe        0x2 
 .text.POWER_CLOCK_IRQHandler
                0x000f4f00       0xa0 _build/build-tk_kb_18010/nrfx_power.o
                0x000f4f00                POWER_CLOCK_IRQHandler
 .text.nvmc_word_write
                0x000f4fa0       0x18 _build/build-tk_kb_18010/nrfx_nvmc.o
 .text.nrfx_nvmc_page_erase
                0x000f4fb8       0x40 _build/build-tk_kb_18010/nrfx_nvmc.o
                0x000f4fb8                nrfx_nvmc_page_erase
 .text.nrfx_nvmc_words_write
                0x000f4ff8       0x34 _build/build-tk_kb_18010/nrfx_nvmc.o
                0x000f4ff8                nrfx_nvmc_words_write
 .text.NVIC_SystemReset
                0x000f502c       0x24 _build/build-tk_kb_18010/system_nrf52840.o
 .text.errata_98
                0x000f5050       0x1a _build/build-tk_kb_18010/system_nrf52840.o
 *fill*         0x000f506a        0x2 
 .text.SystemInit
                0x000f506c      0x1f4 _build/build-tk_kb_18010/system_nrf52840.o
                0x000f506c                SystemInit
 .text.sd_softdevice_vector_table_base_set
                0x000f5260        0x4 _build/build-tk_kb_18010/bootloader.o
 .text.sd_mbr_command
                0x000f5264        0x4 _build/build-tk_kb_18010/bootloader.o
 .text.pstorage_callback_handler
                0x000f5268       0x20 _build/build-tk_kb_18010/bootloader.o
 .text.bootloader_settings_save.constprop.0
                0x000f5288       0x5c _build/build-tk_kb_18010/bootloader.o
 .text.wait_for_events
                0x000f52e4       0x58 _build/build-tk_kb_18010/bootloader.o
 .text.bootloader_app_is_valid
                0x000f533c       0x54 _build/build-tk_kb_18010/bootloader.o
                0x000f533c                bootloader_app_is_valid
 .text.bootloader_dfu_update_process
                0x000f5390       0xfc _build/build-tk_kb_18010/bootloader.o
                0x000f5390                bootloader_dfu_update_process
 .text.dfu_startup_timer_handler
                0x000f548c       0x3c _build/build-tk_kb_18010/bootloader.o
 .text.bootloader_init
                0x000f54c8       0x30 _build/build-tk_kb_18010/bootloader.o
                0x000f54c8                bootloader_init
 .text.bootloader_dfu_start
                0x000f54f8       0x78 _build/build-tk_kb_18010/bootloader.o
                0x000f54f8                bootloader_dfu_start
 .text.bootloader_app_start
                0x000f5570       0x58 _build/build-tk_kb_18010/bootloader.o
                0x000f5570                bootloader_app_start
 .text.bootloader_dfu_sd_in_progress
                0x000f55c8       0x24 _build/build-tk_kb_18010/bootloader.o
                0x000f55c8                bootloader_dfu_sd_in_progress
 .text.bootloader_dfu_sd_update_continue
                0x000f55ec       0x4c _build/build-tk_kb_18010/bootloader.o
                0x000f55ec                bootloader_dfu_sd_update_continue
 .text.bootloader_dfu_sd_update_finalize
                0x000f5638       0x2c _build/build-tk_kb_18010/bootloader.o
                0x000f5638                bootloader_dfu_sd_update_finalize
 .text.bootloader_settings_get
                0x000f5664       0x30 _build/build-tk_kb_18010/bootloader.o
                0x000f5664                bootloader_settings_get
 .text.bootloader_util_settings_get
                0x000f5694        0xc _build/build-tk_kb_18010/bootloader_settings.o
                0x000f5694                bootloader_util_settings_get
 .text.bootloader_util_reset
                0x000f56a0       0x3c _build/build-tk_kb_18010/bootloader_util.o
 .text.bootloader_util_app_start
                0x000f56dc        0x4 _build/build-tk_kb_18010/bootloader_util.o
                0x000f56dc                bootloader_util_app_start
 .text.rpc_transport_event_handler
                0x000f56e0       0x88 _build/build-tk_kb_18010/dfu_transport_serial.o
                0x000f56e0                rpc_transport_event_handler
 .text.dfu_cb_handler
                0x000f5768        0xa _build/build-tk_kb_18010/dfu_transport_serial.o
 *fill*         0x000f5772        0x2 
 .text.data_queue_element_free
                0x000f5774       0x38 _build/build-tk_kb_18010/dfu_transport_serial.o
 .text.process_dfu_packet
                0x000f57ac       0x90 _build/build-tk_kb_18010/dfu_transport_serial.o
 .text.dfu_transport_serial_update_start
                0x000f583c       0x48 _build/build-tk_kb_18010/dfu_transport_serial.o
                0x000f583c                dfu_transport_serial_update_start
 .text.dfu_transport_serial_close
                0x000f5884       0x22 _build/build-tk_kb_18010/dfu_transport_serial.o
                0x000f5884                dfu_transport_serial_close
 .text.uint32_decode
                0x000f58a6        0x4 _build/build-tk_kb_18010/dfu_transport_ble.o
 .text.sd_ble_gap_addr_set
                0x000f58aa        0x4 _build/build-tk_kb_18010/dfu_transport_ble.o
 .text.sd_ble_gap_addr_get
                0x000f58ae        0x4 _build/build-tk_kb_18010/dfu_transport_ble.o
 .text.sd_ble_gap_whitelist_set
                0x000f58b2        0x4 _build/build-tk_kb_18010/dfu_transport_ble.o
 .text.sd_ble_gap_device_identities_set
                0x000f58b6        0x4 _build/build-tk_kb_18010/dfu_transport_ble.o
 .text.sd_ble_gap_adv_set_configure
                0x000f58ba        0x4 _build/build-tk_kb_18010/dfu_transport_ble.o
 .text.sd_ble_gap_adv_start
                0x000f58be        0x4 _build/build-tk_kb_18010/dfu_transport_ble.o
 .text.sd_ble_gap_adv_stop
                0x000f58c2        0x4 _build/build-tk_kb_18010/dfu_transport_ble.o
 .text.sd_ble_gap_disconnect
                0x000f58c6        0x4 _build/build-tk_kb_18010/dfu_transport_ble.o
 .text.sd_ble_gap_tx_power_set
                0x000f58ca        0x4 _build/build-tk_kb_18010/dfu_transport_ble.o
 .text.sd_ble_gap_ppcp_set
                0x000f58ce        0x4 _build/build-tk_kb_18010/dfu_transport_ble.o
 .text.sd_ble_gap_device_name_set
                0x000f58d2        0x4 _build/build-tk_kb_18010/dfu_transport_ble.o
 .text.sd_ble_gap_sec_params_reply
                0x000f58d6        0x4 _build/build-tk_kb_18010/dfu_transport_ble.o
 .text.sd_ble_gap_sec_info_reply
                0x000f58da        0x4 _build/build-tk_kb_18010/dfu_transport_ble.o
 .text.sd_ble_gap_phy_update
                0x000f58de        0x4 _build/build-tk_kb_18010/dfu_transport_ble.o
 .text.sd_ble_gap_data_length_update
                0x000f58e2        0x4 _build/build-tk_kb_18010/dfu_transport_ble.o
 .text.sd_ble_gatts_service_changed
                0x000f58e6        0x4 _build/build-tk_kb_18010/dfu_transport_ble.o
 .text.sd_ble_gatts_rw_authorize_reply
                0x000f58ea        0x4 _build/build-tk_kb_18010/dfu_transport_ble.o
 .text.sd_ble_gatts_sys_attr_set
                0x000f58ee        0x4 _build/build-tk_kb_18010/dfu_transport_ble.o
 .text.sd_ble_gatts_sys_attr_get
                0x000f58f2        0x4 _build/build-tk_kb_18010/dfu_transport_ble.o
 .text.sd_ble_gatts_exchange_mtu_reply
                0x000f58f6        0x4 _build/build-tk_kb_18010/dfu_transport_ble.o
 .text.sd_ble_uuid_encode
                0x000f58fa        0x4 _build/build-tk_kb_18010/dfu_transport_ble.o
 .text.sd_ble_user_mem_reply
                0x000f58fe        0x4 _build/build-tk_kb_18010/dfu_transport_ble.o
 .text.nrf_err_code_translate
                0x000f5902       0x34 _build/build-tk_kb_18010/dfu_transport_ble.o
 .text.service_error_handler
                0x000f5936        0x4 _build/build-tk_kb_18010/dfu_transport_ble.o
 .text.dfu_error_notify
                0x000f593a       0x20 _build/build-tk_kb_18010/dfu_transport_ble.o
 *fill*         0x000f595a        0x2 
 .text.dfu_cb_handler
                0x000f595c       0x68 _build/build-tk_kb_18010/dfu_transport_ble.o
 .text.advertising_add.constprop.0
                0x000f59c4       0x30 _build/build-tk_kb_18010/dfu_transport_ble.o
 .text.advertising_start
                0x000f59f4      0x168 _build/build-tk_kb_18010/dfu_transport_ble.o
 .text.ble_evt_dispatch
                0x000f5b5c      0x2cc _build/build-tk_kb_18010/dfu_transport_ble.o
                0x000f5b5c                ble_evt_dispatch
 .text.dfu_transport_ble_update_start
                0x000f5e28      0x148 _build/build-tk_kb_18010/dfu_transport_ble.o
                0x000f5e28                dfu_transport_ble_update_start
 .text.dfu_transport_ble_close
                0x000f5f70       0x50 _build/build-tk_kb_18010/dfu_transport_ble.o
                0x000f5f70                dfu_transport_ble_close
 .text.on_dfu_evt
                0x000f5fc0      0x268 _build/build-tk_kb_18010/dfu_transport_ble.o
 .text.sd_mbr_command
                0x000f6228        0x4 _build/build-tk_kb_18010/dfu_single_bank.o
 .text.pstorage_callback_handler
                0x000f622c       0x64 _build/build-tk_kb_18010/dfu_single_bank.o
 .text.dfu_activate_app
                0x000f6290       0x40 _build/build-tk_kb_18010/dfu_single_bank.o
 .text.dfu_activate_bl
                0x000f62d0       0x3c _build/build-tk_kb_18010/dfu_single_bank.o
 .text.dfu_activate_sd
                0x000f630c       0x54 _build/build-tk_kb_18010/dfu_single_bank.o
 .text.dfu_cleared_func_app
                0x000f6360       0x26 _build/build-tk_kb_18010/dfu_single_bank.o
 *fill*         0x000f6386        0x2 
 .text.dfu_prepare_func_app_erase
                0x000f6388       0x7c _build/build-tk_kb_18010/dfu_single_bank.o
 .text.dfu_sd_img_block_swap
                0x000f6404       0x5c _build/build-tk_kb_18010/dfu_single_bank.o
 .text.dfu_init
                0x000f6460       0x60 _build/build-tk_kb_18010/dfu_single_bank.o
                0x000f6460                dfu_init
 .text.dfu_register_callback
                0x000f64c0        0xc _build/build-tk_kb_18010/dfu_single_bank.o
                0x000f64c0                dfu_register_callback
 .text.dfu_start_pkt_handle
                0x000f64cc       0xb8 _build/build-tk_kb_18010/dfu_single_bank.o
                0x000f64cc                dfu_start_pkt_handle
 .text.dfu_data_pkt_handle
                0x000f6584       0xcc _build/build-tk_kb_18010/dfu_single_bank.o
                0x000f6584                dfu_data_pkt_handle
 .text.dfu_init_pkt_complete
                0x000f6650       0x44 _build/build-tk_kb_18010/dfu_single_bank.o
                0x000f6650                dfu_init_pkt_complete
 .text.dfu_init_pkt_handle
                0x000f6694       0x58 _build/build-tk_kb_18010/dfu_single_bank.o
                0x000f6694                dfu_init_pkt_handle
 .text.dfu_image_validate
                0x000f66ec       0x40 _build/build-tk_kb_18010/dfu_single_bank.o
                0x000f66ec                dfu_image_validate
 .text.dfu_image_activate
                0x000f672c       0x1c _build/build-tk_kb_18010/dfu_single_bank.o
                0x000f672c                dfu_image_activate
 .text.dfu_reset
                0x000f6748       0x1c _build/build-tk_kb_18010/dfu_single_bank.o
                0x000f6748                dfu_reset
 .text.dfu_sd_image_swap
                0x000f6764       0x98 _build/build-tk_kb_18010/dfu_single_bank.o
                0x000f6764                dfu_sd_image_swap
 .text.dfu_bl_image_swap
                0x000f67fc       0x48 _build/build-tk_kb_18010/dfu_single_bank.o
                0x000f67fc                dfu_bl_image_swap
 .text.dfu_bl_image_validate
                0x000f6844       0x4c _build/build-tk_kb_18010/dfu_single_bank.o
                0x000f6844                dfu_bl_image_validate
 .text.dfu_sd_image_validate
                0x000f6890       0x64 _build/build-tk_kb_18010/dfu_single_bank.o
                0x000f6890                dfu_sd_image_validate
 .text.sd_ble_gatts_service_add
                0x000f68f4        0x4 _build/build-tk_kb_18010/ble_dfu.o
 .text.sd_ble_gatts_characteristic_add
                0x000f68f8        0x4 _build/build-tk_kb_18010/ble_dfu.o
 .text.sd_ble_gatts_value_get
                0x000f68fc        0x4 _build/build-tk_kb_18010/ble_dfu.o
 .text.sd_ble_gatts_hvx
                0x000f6900        0x4 _build/build-tk_kb_18010/ble_dfu.o
 .text.sd_ble_gatts_rw_authorize_reply
                0x000f6904        0x4 _build/build-tk_kb_18010/ble_dfu.o
 .text.sd_ble_uuid_vs_add
                0x000f6908        0x4 _build/build-tk_kb_18010/ble_dfu.o
 .text.ble_dfu_init
                0x000f690c      0x20c _build/build-tk_kb_18010/ble_dfu.o
                0x000f690c                ble_dfu_init
 .text.ble_dfu_bytes_rcvd_report
                0x000f6b18       0x78 _build/build-tk_kb_18010/ble_dfu.o
                0x000f6b18                ble_dfu_bytes_rcvd_report
 .text.ble_dfu_pkts_rcpt_notify
                0x000f6b90       0x74 _build/build-tk_kb_18010/ble_dfu.o
                0x000f6b90                ble_dfu_pkts_rcpt_notify
 .text.ble_dfu_response_send
                0x000f6c04       0x68 _build/build-tk_kb_18010/ble_dfu.o
                0x000f6c04                ble_dfu_response_send
 .text.ble_dfu_on_ble_evt
                0x000f6c6c      0x174 _build/build-tk_kb_18010/ble_dfu.o
                0x000f6c6c                ble_dfu_on_ble_evt
 .text.sd_ble_gatts_service_add
                0x000f6de0        0x4 _build/build-tk_kb_18010/ble_dis.o
 .text.sd_ble_gatts_characteristic_add
                0x000f6de4        0x4 _build/build-tk_kb_18010/ble_dis.o
 .text.char_add
                0x000f6de8       0xac _build/build-tk_kb_18010/ble_dis.o
 .text.ble_dis_init
                0x000f6e94       0xd4 _build/build-tk_kb_18010/ble_dis.o
                0x000f6e94                ble_dis_init
 .text.sd_flash_write
                0x000f6f68        0x4 _build/build-tk_kb_18010/pstorage_raw.o
 .text.sd_flash_page_erase
                0x000f6f6c        0x4 _build/build-tk_kb_18010/pstorage_raw.o
 .text.cmd_queue_element_init
                0x000f6f70       0x20 _build/build-tk_kb_18010/pstorage_raw.o
 .text.app_notify
                0x000f6f90       0x24 _build/build-tk_kb_18010/pstorage_raw.o
 .text.cmd_process
                0x000f6fb4       0x70 _build/build-tk_kb_18010/pstorage_raw.o
 .text.cmd_queue_enqueue
                0x000f7024       0x54 _build/build-tk_kb_18010/pstorage_raw.o
 .text.pstorage_sys_event_handler
                0x000f7078       0xa4 _build/build-tk_kb_18010/pstorage_raw.o
                0x000f7078                pstorage_sys_event_handler
 .text.pstorage_init
                0x000f711c       0x3c _build/build-tk_kb_18010/pstorage_raw.o
                0x000f711c                pstorage_init
 .text.pstorage_register
                0x000f7158       0x24 _build/build-tk_kb_18010/pstorage_raw.o
                0x000f7158                pstorage_register
 .text.pstorage_store
                0x000f717c       0x20 _build/build-tk_kb_18010/pstorage_raw.o
                0x000f717c                pstorage_store
 .text.pstorage_clear
                0x000f719c       0x16 _build/build-tk_kb_18010/pstorage_raw.o
                0x000f719c                pstorage_clear
 *fill*         0x000f71b2        0x2 
 .text.user_op_alloc
                0x000f71b4       0x2c _build/build-tk_kb_18010/app_timer.o
 .text.timeout_handler_scheduled_exec
                0x000f71e0       0x18 _build/build-tk_kb_18010/app_timer.o
 .text.timer_stop_op_schedule
                0x000f71f8       0x50 _build/build-tk_kb_18010/app_timer.o
 .text.nrf_delay_us.part.0.constprop.0
                0x000f7248       0x8c _build/build-tk_kb_18010/app_timer.o
 .text.rtc1_stop
                0x000f72d4       0x44 _build/build-tk_kb_18010/app_timer.o
 .text.RTC1_IRQHandler
                0x000f7318       0xbc _build/build-tk_kb_18010/app_timer.o
                0x000f7318                RTC1_IRQHandler
 .text.SWI0_EGU0_IRQHandler
                0x000f73d4      0x2b4 _build/build-tk_kb_18010/app_timer.o
                0x000f73d4                SWI0_EGU0_IRQHandler
 .text.app_timer_init
                0x000f7688       0x60 _build/build-tk_kb_18010/app_timer.o
                0x000f7688                app_timer_init
 .text.app_timer_create
                0x000f76e8       0x24 _build/build-tk_kb_18010/app_timer.o
                0x000f76e8                app_timer_create
 .text.app_timer_start
                0x000f770c       0x90 _build/build-tk_kb_18010/app_timer.o
                0x000f770c                app_timer_start
 .text.app_timer_stop
                0x000f779c       0x20 _build/build-tk_kb_18010/app_timer.o
                0x000f779c                app_timer_stop
 .text.app_sched_init
                0x000f77bc       0x48 _build/build-tk_kb_18010/app_scheduler.o
                0x000f77bc                app_sched_init
 .text.app_sched_event_put
                0x000f7804       0xd4 _build/build-tk_kb_18010/app_scheduler.o
                0x000f7804                app_sched_event_put
 .text.app_sched_execute
                0x000f78d8       0x5c _build/build-tk_kb_18010/app_scheduler.o
                0x000f78d8                app_sched_execute
 .text.app_error_handler_bare
                0x000f7934       0x1c _build/build-tk_kb_18010/app_error.o
                0x000f7934                app_error_handler_bare
 .text.app_util_critical_region_enter
                0x000f7950       0x48 _build/build-tk_kb_18010/app_util_platform.o
                0x000f7950                app_util_critical_region_enter
 .text.app_util_critical_region_exit
                0x000f7998       0x2c _build/build-tk_kb_18010/app_util_platform.o
                0x000f7998                app_util_critical_region_exit
 .text.crc16_compute
                0x000f79c4       0x3a _build/build-tk_kb_18010/crc16.o
                0x000f79c4                crc16_compute
 *fill*         0x000f79fe        0x2 
 .text.hci_mem_pool_open
                0x000f7a00       0x28 _build/build-tk_kb_18010/hci_mem_pool.o
                0x000f7a00                hci_mem_pool_open
 .text.hci_mem_pool_close
                0x000f7a28        0x4 _build/build-tk_kb_18010/hci_mem_pool.o
                0x000f7a28                hci_mem_pool_close
 .text.hci_mem_pool_rx_produce
                0x000f7a2c       0x54 _build/build-tk_kb_18010/hci_mem_pool.o
                0x000f7a2c                hci_mem_pool_rx_produce
 .text.hci_mem_pool_rx_consume
                0x000f7a80       0x78 _build/build-tk_kb_18010/hci_mem_pool.o
                0x000f7a80                hci_mem_pool_rx_consume
 .text.hci_mem_pool_rx_data_size_set
                0x000f7af8       0x20 _build/build-tk_kb_18010/hci_mem_pool.o
                0x000f7af8                hci_mem_pool_rx_data_size_set
 .text.hci_mem_pool_rx_extract
                0x000f7b18       0x44 _build/build-tk_kb_18010/hci_mem_pool.o
                0x000f7b18                hci_mem_pool_rx_extract
 .text.handle_slip_end
                0x000f7b5c       0x40 _build/build-tk_kb_18010/hci_slip.o
 .text.handle_rx_byte_esc
                0x000f7b9c       0x5c _build/build-tk_kb_18010/hci_slip.o
 .text.handle_rx_byte_wait_start
                0x000f7bf8       0x14 _build/build-tk_kb_18010/hci_slip.o
 .text.handle_rx_byte_default
                0x000f7c0c       0x40 _build/build-tk_kb_18010/hci_slip.o
 .text.serial_put
                0x000f7c4c       0x20 _build/build-tk_kb_18010/hci_slip.o
 .text.send_tx_byte_default
                0x000f7c6c       0x24 _build/build-tk_kb_18010/hci_slip.o
 .text.send_tx_byte_end
                0x000f7c90       0x24 _build/build-tk_kb_18010/hci_slip.o
 .text.send_tx_byte_esc
                0x000f7cb4       0x1c _build/build-tk_kb_18010/hci_slip.o
 .text.send_tx_byte_encoded
                0x000f7cd0       0x44 _build/build-tk_kb_18010/hci_slip.o
 .text.tud_cdc_rx_cb
                0x000f7d14       0x78 _build/build-tk_kb_18010/hci_slip.o
                0x000f7d14                tud_cdc_rx_cb
 .text.hci_slip_evt_handler_register
                0x000f7d8c        0xc _build/build-tk_kb_18010/hci_slip.o
                0x000f7d8c                hci_slip_evt_handler_register
 .text.hci_slip_open
                0x000f7d98       0x14 _build/build-tk_kb_18010/hci_slip.o
                0x000f7d98                hci_slip_open
 .text.hci_slip_close
                0x000f7dac        0xc _build/build-tk_kb_18010/hci_slip.o
                0x000f7dac                hci_slip_close
 .text.hci_slip_write
                0x000f7db8       0xd0 _build/build-tk_kb_18010/hci_slip.o
                0x000f7db8                hci_slip_write
 .text.hci_slip_rx_buffer_register
                0x000f7e88       0x2c _build/build-tk_kb_18010/hci_slip.o
                0x000f7e88                hci_slip_rx_buffer_register
 .text.ack_transmit
                0x000f7eb4       0x24 _build/build-tk_kb_18010/hci_transport.o
 .text.tx_sm_event_handle
                0x000f7ed8       0xcc _build/build-tk_kb_18010/hci_transport.o
 .text.slip_event_handle
                0x000f7fa4      0x194 _build/build-tk_kb_18010/hci_transport.o
                0x000f7fa4                slip_event_handle
 .text.hci_transport_timeout_handle
                0x000f8138        0x6 _build/build-tk_kb_18010/hci_transport.o
                0x000f8138                hci_transport_timeout_handle
 *fill*         0x000f813e        0x2 
 .text.hci_transport_evt_handler_reg
                0x000f8140       0x28 _build/build-tk_kb_18010/hci_transport.o
                0x000f8140                hci_transport_evt_handler_reg
 .text.hci_transport_open
                0x000f8168       0x90 _build/build-tk_kb_18010/hci_transport.o
                0x000f8168                hci_transport_open
 .text.hci_transport_close
                0x000f81f8       0x40 _build/build-tk_kb_18010/hci_transport.o
                0x000f81f8                hci_transport_close
 .text.hci_transport_rx_pkt_extract
                0x000f8238       0x38 _build/build-tk_kb_18010/hci_transport.o
                0x000f8238                hci_transport_rx_pkt_extract
 .text.hci_transport_rx_pkt_consume
                0x000f8270        0x6 _build/build-tk_kb_18010/hci_transport.o
                0x000f8270                hci_transport_rx_pkt_consume
 .text.sd_mbr_command
                0x000f8276        0x4 _build/build-tk_kb_18010/msc_uf2.o
 *fill*         0x000f827a        0x2 
 .text.tud_msc_inquiry_cb
                0x000f827c       0x68 _build/build-tk_kb_18010/msc_uf2.o
                0x000f827c                tud_msc_inquiry_cb
 .text.tud_msc_test_unit_ready_cb
                0x000f82e4        0x4 _build/build-tk_kb_18010/msc_uf2.o
                0x000f82e4                tud_msc_test_unit_ready_cb
 .text.tud_msc_scsi_cb
                0x000f82e8       0x1c _build/build-tk_kb_18010/msc_uf2.o
                0x000f82e8                tud_msc_scsi_cb
 .text.tud_msc_read10_cb
                0x000f8304       0x42 _build/build-tk_kb_18010/msc_uf2.o
                0x000f8304                tud_msc_read10_cb
 *fill*         0x000f8346        0x2 
 .text.tud_msc_write10_cb
                0x000f8348       0x30 _build/build-tk_kb_18010/msc_uf2.o
                0x000f8348                tud_msc_write10_cb
 .text.tud_msc_write10_complete_cb
                0x000f8378       0xa4 _build/build-tk_kb_18010/msc_uf2.o
                0x000f8378                tud_msc_write10_complete_cb
 .text.tud_msc_capacity_cb
                0x000f841c       0x10 _build/build-tk_kb_18010/msc_uf2.o
                0x000f841c                tud_msc_capacity_cb
 .text.tud_msc_start_stop_cb
                0x000f842c        0x4 _build/build-tk_kb_18010/msc_uf2.o
                0x000f842c                tud_msc_start_stop_cb
 .text.tud_descriptor_device_cb
                0x000f8430        0x8 _build/build-tk_kb_18010/usb_desc.o
                0x000f8430                tud_descriptor_device_cb
 .text.tud_descriptor_configuration_cb
                0x000f8438       0x20 _build/build-tk_kb_18010/usb_desc.o
                0x000f8438                tud_descriptor_configuration_cb
 .text.usb_desc_init
                0x000f8458       0x9c _build/build-tk_kb_18010/usb_desc.o
                0x000f8458                usb_desc_init
 .text.tud_descriptor_string_cb
                0x000f84f4       0x60 _build/build-tk_kb_18010/usb_desc.o
                0x000f84f4                tud_descriptor_string_cb
 .text.sd_power_usbpwrrdy_enable
                0x000f8554        0x4 _build/build-tk_kb_18010/usb.o
 .text.sd_power_usbdetected_enable
                0x000f8558        0x4 _build/build-tk_kb_18010/usb.o
 .text.sd_power_usbremoved_enable
                0x000f855c        0x4 _build/build-tk_kb_18010/usb.o
 .text.sd_power_usbregstatus_get
                0x000f8560        0x4 _build/build-tk_kb_18010/usb.o
 .text.sd_softdevice_is_enabled
                0x000f8564        0x4 _build/build-tk_kb_18010/usb.o
 .text.power_event_handler
                0x000f8568        0x4 _build/build-tk_kb_18010/usb.o
 .text.USBD_IRQHandler
                0x000f856c        0x6 _build/build-tk_kb_18010/usb.o
                0x000f856c                USBD_IRQHandler
 *fill*         0x000f8572        0x2 
 .text.usb_init
                0x000f8574       0xa0 _build/build-tk_kb_18010/usb.o
                0x000f8574                usb_init
 .text.usb_teardown
                0x000f8614        0x6 _build/build-tk_kb_18010/usb.o
                0x000f8614                usb_teardown
 .text.tud_mount_cb
                0x000f861a        0x6 _build/build-tk_kb_18010/usb.o
                0x000f861a                tud_mount_cb
 .text.tud_umount_cb
                0x000f8620        0x6 _build/build-tk_kb_18010/usb.o
                0x000f8620                tud_umount_cb
 *fill*         0x000f8626        0x2 
 .text.uf2_init
                0x000f8628       0xe4 _build/build-tk_kb_18010/ghostfat.o
                0x000f8628                uf2_init
 .text.padded_memcpy
                0x000f870c       0x1c _build/build-tk_kb_18010/ghostfat.o
                0x000f870c                padded_memcpy
 .text.read_block
                0x000f8728      0x19c _build/build-tk_kb_18010/ghostfat.o
                0x000f8728                read_block
 .text.write_block
                0x000f88c4      0x1ac _build/build-tk_kb_18010/ghostfat.o
                0x000f88c4                write_block
 .text.nrfx_usbd_errata_187
                0x000f8a70       0x20 _build/build-tk_kb_18010/dcd_nrf5x.o
 .text.start_dma
                0x000f8a90       0x30 _build/build-tk_kb_18010/dcd_nrf5x.o
 .text.sd_clock_hfclk_request
                0x000f8ac0        0x4 _build/build-tk_kb_18010/dcd_nrf5x.o
 .text.sd_clock_hfclk_release
                0x000f8ac4        0x4 _build/build-tk_kb_18010/dcd_nrf5x.o
 .text.sd_clock_hfclk_is_running
                0x000f8ac8        0x4 _build/build-tk_kb_18010/dcd_nrf5x.o
 .text.sd_softdevice_is_enabled
                0x000f8acc        0x4 _build/build-tk_kb_18010/dcd_nrf5x.o
 .text.is_sd_enabled
                0x000f8ad0       0x30 _build/build-tk_kb_18010/dcd_nrf5x.o
 .text.hfclk_running
                0x000f8b00       0x36 _build/build-tk_kb_18010/dcd_nrf5x.o
 *fill*         0x000f8b36        0x2 
 .text.edpt_dma_start
                0x000f8b38       0x60 _build/build-tk_kb_18010/dcd_nrf5x.o
 .text.xact_in_dma
                0x000f8b98       0x40 _build/build-tk_kb_18010/dcd_nrf5x.o
 .text.xact_out_dma.part.0
                0x000f8bd8       0x2c _build/build-tk_kb_18010/dcd_nrf5x.o
 .text.xact_out_dma
                0x000f8c04       0x58 _build/build-tk_kb_18010/dcd_nrf5x.o
 .text.dcd_init
                0x000f8c5c        0x2 _build/build-tk_kb_18010/dcd_nrf5x.o
                0x000f8c5c                dcd_init
 *fill*         0x000f8c5e        0x2 
 .text.dcd_int_enable
                0x000f8c60        0xc _build/build-tk_kb_18010/dcd_nrf5x.o
                0x000f8c60                dcd_int_enable
 .text.dcd_int_disable
                0x000f8c6c       0x10 _build/build-tk_kb_18010/dcd_nrf5x.o
                0x000f8c6c                dcd_int_disable
 .text.dcd_set_address
                0x000f8c7c       0x24 _build/build-tk_kb_18010/dcd_nrf5x.o
                0x000f8c7c                dcd_set_address
 .text.dcd_edpt_open
                0x000f8ca0      0x114 _build/build-tk_kb_18010/dcd_nrf5x.o
                0x000f8ca0                dcd_edpt_open
 .text.dcd_edpt_close_all
                0x000f8db4       0x90 _build/build-tk_kb_18010/dcd_nrf5x.o
                0x000f8db4                dcd_edpt_close_all
 .text.dcd_edpt_xfer
                0x000f8e44       0x9c _build/build-tk_kb_18010/dcd_nrf5x.o
                0x000f8e44                dcd_edpt_xfer
 .text.dcd_edpt_stall
                0x000f8ee0       0x48 _build/build-tk_kb_18010/dcd_nrf5x.o
                0x000f8ee0                dcd_edpt_stall
 .text.dcd_edpt_clear_stall
                0x000f8f28       0x34 _build/build-tk_kb_18010/dcd_nrf5x.o
                0x000f8f28                dcd_edpt_clear_stall
 .text.bus_reset
                0x000f8f5c       0x6c _build/build-tk_kb_18010/dcd_nrf5x.o
                0x000f8f5c                bus_reset
 .text.dcd_int_handler
                0x000f8fc8      0x324 _build/build-tk_kb_18010/dcd_nrf5x.o
                0x000f8fc8                dcd_int_handler
 .text.tusb_hal_nrf_power_event
                0x000f92ec      0x204 _build/build-tk_kb_18010/dcd_nrf5x.o
                0x000f92ec                tusb_hal_nrf_power_event
 .text.advance_pointer
                0x000f94f0       0x18 _build/build-tk_kb_18010/tusb_fifo.o
 .text._tu_fifo_correct_read_pointer
                0x000f9508       0x1e _build/build-tk_kb_18010/tusb_fifo.o
 .text._ff_pull_const_addr
                0x000f9526       0x2e _build/build-tk_kb_18010/tusb_fifo.o
 .text._tu_fifo_peek_n
                0x000f9554      0x126 _build/build-tk_kb_18010/tusb_fifo.o
 .text._ff_push_const_addr
                0x000f967a       0x28 _build/build-tk_kb_18010/tusb_fifo.o
 .text._tu_fifo_peek
                0x000f96a2       0x4c _build/build-tk_kb_18010/tusb_fifo.o
 .text._tu_fifo_write_n.part.0
                0x000f96ee      0x140 _build/build-tk_kb_18010/tusb_fifo.o
 .text.tu_fifo_config
                0x000f982e       0x2c _build/build-tk_kb_18010/tusb_fifo.o
                0x000f982e                tu_fifo_config
 .text.tu_fifo_count
                0x000f985a       0x24 _build/build-tk_kb_18010/tusb_fifo.o
                0x000f985a                tu_fifo_count
 .text.tu_fifo_empty
                0x000f987e       0x10 _build/build-tk_kb_18010/tusb_fifo.o
                0x000f987e                tu_fifo_empty
 .text.tu_fifo_remaining
                0x000f988e       0x24 _build/build-tk_kb_18010/tusb_fifo.o
                0x000f988e                tu_fifo_remaining
 .text.tu_fifo_read
                0x000f98b2       0x24 _build/build-tk_kb_18010/tusb_fifo.o
                0x000f98b2                tu_fifo_read
 .text.tu_fifo_read_n
                0x000f98d6       0x2c _build/build-tk_kb_18010/tusb_fifo.o
                0x000f98d6                tu_fifo_read_n
 .text.tu_fifo_write
                0x000f9902       0x52 _build/build-tk_kb_18010/tusb_fifo.o
                0x000f9902                tu_fifo_write
 .text.tu_fifo_write_n
                0x000f9954        0xc _build/build-tk_kb_18010/tusb_fifo.o
                0x000f9954                tu_fifo_write_n
 .text.tu_fifo_clear
                0x000f9960       0x18 _build/build-tk_kb_18010/tusb_fifo.o
                0x000f9960                tu_fifo_clear
 .text.tu_fifo_set_overwritable
                0x000f9978        0x6 _build/build-tk_kb_18010/tusb_fifo.o
                0x000f9978                tu_fifo_set_overwritable
 *fill*         0x000f997e        0x2 
 .text.get_driver
                0x000f9980       0x40 _build/build-tk_kb_18010/usbd.o
 .text.configuration_reset
                0x000f99c0       0x54 _build/build-tk_kb_18010/usbd.o
 .text.invoke_class_control
                0x000f9a14       0x1c _build/build-tk_kb_18010/usbd.o
 .text.osal_queue_send.isra.0
                0x000f9a30       0x40 _build/build-tk_kb_18010/usbd.o
 .text.tud_mounted
                0x000f9a70       0x10 _build/build-tk_kb_18010/usbd.o
                0x000f9a70                tud_mounted
 .text.tud_suspended
                0x000f9a80       0x10 _build/build-tk_kb_18010/usbd.o
                0x000f9a80                tud_suspended
 .text.tud_inited
                0x000f9a90        0xc _build/build-tk_kb_18010/usbd.o
                0x000f9a90                tud_inited
 .text.tud_init
                0x000f9a9c       0x7c _build/build-tk_kb_18010/usbd.o
                0x000f9a9c                tud_init
 .text.dcd_event_handler
                0x000f9b18       0xa4 _build/build-tk_kb_18010/usbd.o
                0x000f9b18                dcd_event_handler
 .text.dcd_event_bus_signal
                0x000f9bbc       0x26 _build/build-tk_kb_18010/usbd.o
                0x000f9bbc                dcd_event_bus_signal
 .text.dcd_event_bus_reset
                0x000f9be2       0x2c _build/build-tk_kb_18010/usbd.o
                0x000f9be2                dcd_event_bus_reset
 .text.dcd_event_setup_received
                0x000f9c0e       0x32 _build/build-tk_kb_18010/usbd.o
                0x000f9c0e                dcd_event_setup_received
 .text.dcd_event_xfer_complete
                0x000f9c40       0x2e _build/build-tk_kb_18010/usbd.o
                0x000f9c40                dcd_event_xfer_complete
 .text.usbd_defer_func
                0x000f9c6e       0x1a _build/build-tk_kb_18010/usbd.o
                0x000f9c6e                usbd_defer_func
 .text.usbd_edpt_open
                0x000f9c88       0x40 _build/build-tk_kb_18010/usbd.o
                0x000f9c88                usbd_edpt_open
 .text.usbd_open_edpt_pair
                0x000f9cc8       0x5c _build/build-tk_kb_18010/usbd.o
                0x000f9cc8                usbd_open_edpt_pair
 .text.usbd_edpt_claim
                0x000f9d24       0x34 _build/build-tk_kb_18010/usbd.o
                0x000f9d24                usbd_edpt_claim
 .text.usbd_edpt_release
                0x000f9d58       0x34 _build/build-tk_kb_18010/usbd.o
                0x000f9d58                usbd_edpt_release
 .text.usbd_edpt_xfer
                0x000f9d8c       0x50 _build/build-tk_kb_18010/usbd.o
                0x000f9d8c                usbd_edpt_xfer
 .text.usbd_edpt_busy
                0x000f9ddc       0x1c _build/build-tk_kb_18010/usbd.o
                0x000f9ddc                usbd_edpt_busy
 .text.usbd_edpt_stall
                0x000f9df8       0x34 _build/build-tk_kb_18010/usbd.o
                0x000f9df8                usbd_edpt_stall
 .text.usbd_edpt_clear_stall
                0x000f9e2c       0x34 _build/build-tk_kb_18010/usbd.o
                0x000f9e2c                usbd_edpt_clear_stall
 .text.usbd_edpt_stalled
                0x000f9e60       0x1c _build/build-tk_kb_18010/usbd.o
                0x000f9e60                usbd_edpt_stalled
 .text.tud_task
                0x000f9e7c      0x5c8 _build/build-tk_kb_18010/usbd.o
                0x000f9e7c                tud_task
 .text._data_stage_xact
                0x000fa444       0x54 _build/build-tk_kb_18010/usbd_control.o
 .text._status_stage_xact.isra.0
                0x000fa498        0xe _build/build-tk_kb_18010/usbd_control.o
 *fill*         0x000fa4a6        0x2 
 .text.tud_control_status
                0x000fa4a8       0x24 _build/build-tk_kb_18010/usbd_control.o
                0x000fa4a8                tud_control_status
 .text.tud_control_xfer
                0x000fa4cc       0x58 _build/build-tk_kb_18010/usbd_control.o
                0x000fa4cc                tud_control_xfer
 .text.usbd_control_reset
                0x000fa524       0x10 _build/build-tk_kb_18010/usbd_control.o
                0x000fa524                usbd_control_reset
 .text.usbd_control_set_complete_callback
                0x000fa534        0xc _build/build-tk_kb_18010/usbd_control.o
                0x000fa534                usbd_control_set_complete_callback
 .text.usbd_control_set_request
                0x000fa540       0x1c _build/build-tk_kb_18010/usbd_control.o
                0x000fa540                usbd_control_set_request
 .text.usbd_control_xfer_cb
                0x000fa55c       0xb4 _build/build-tk_kb_18010/usbd_control.o
                0x000fa55c                usbd_control_xfer_cb
 .text._prep_out_transaction.isra.0
                0x000fa610       0x44 _build/build-tk_kb_18010/cdc_device.o
 .text.tud_cdc_n_available
                0x000fa654       0x18 _build/build-tk_kb_18010/cdc_device.o
                0x000fa654                tud_cdc_n_available
 .text.tud_cdc_n_read
                0x000fa66c       0x28 _build/build-tk_kb_18010/cdc_device.o
                0x000fa66c                tud_cdc_n_read
 .text.tud_cdc_n_write_flush
                0x000fa694       0x80 _build/build-tk_kb_18010/cdc_device.o
                0x000fa694                tud_cdc_n_write_flush
 .text.tud_cdc_n_write
                0x000fa714       0x30 _build/build-tk_kb_18010/cdc_device.o
                0x000fa714                tud_cdc_n_write
 .text.cdcd_init
                0x000fa744       0x58 _build/build-tk_kb_18010/cdc_device.o
                0x000fa744                cdcd_init
 .text.cdcd_reset
                0x000fa79c       0x30 _build/build-tk_kb_18010/cdc_device.o
                0x000fa79c                cdcd_reset
 .text.cdcd_open
                0x000fa7cc       0xa8 _build/build-tk_kb_18010/cdc_device.o
                0x000fa7cc                cdcd_open
 .text.cdcd_control_xfer_cb
                0x000fa874       0xb8 _build/build-tk_kb_18010/cdc_device.o
                0x000fa874                cdcd_control_xfer_cb
 .text.cdcd_xfer_cb
                0x000fa92c       0xf0 _build/build-tk_kb_18010/cdc_device.o
                0x000fa92c                cdcd_xfer_cb
 .text.fail_scsi_op.constprop.0
                0x000faa1c       0x48 _build/build-tk_kb_18010/msc_device.o
 .text.proc_write10_cmd.constprop.0
                0x000faa64       0x64 _build/build-tk_kb_18010/msc_device.o
 .text.proc_read10_cmd.constprop.0
                0x000faac8       0x98 _build/build-tk_kb_18010/msc_device.o
 .text.rdwr10_validate_cmd
                0x000fab60       0x40 _build/build-tk_kb_18010/msc_device.o
                0x000fab60                rdwr10_validate_cmd
 .text.tud_msc_set_sense
                0x000faba0       0x18 _build/build-tk_kb_18010/msc_device.o
                0x000faba0                tud_msc_set_sense
 .text.mscd_init
                0x000fabb8       0x10 _build/build-tk_kb_18010/msc_device.o
                0x000fabb8                mscd_init
 .text.mscd_reset
                0x000fabc8       0x10 _build/build-tk_kb_18010/msc_device.o
                0x000fabc8                mscd_reset
 .text.mscd_open
                0x000fabd8       0x80 _build/build-tk_kb_18010/msc_device.o
                0x000fabd8                mscd_open
 .text.mscd_control_xfer_cb
                0x000fac58      0x124 _build/build-tk_kb_18010/msc_device.o
                0x000fac58                mscd_control_xfer_cb
 .text.mscd_xfer_cb
                0x000fad7c      0x4a4 _build/build-tk_kb_18010/msc_device.o
                0x000fad7c                mscd_xfer_cb
 .text.tusb_init
                0x000fb220       0x1a _build/build-tk_kb_18010/tusb.o
                0x000fb220                tusb_init
 .text.tusb_inited
                0x000fb23a        0x4 _build/build-tk_kb_18010/tusb.o
                0x000fb23a                tusb_inited
 .text.tu_edpt_validate
                0x000fb23e       0x5e _build/build-tk_kb_18010/tusb.o
                0x000fb23e                tu_edpt_validate
 .text.tu_edpt_bind_driver
                0x000fb29c       0x24 _build/build-tk_kb_18010/tusb.o
                0x000fb29c                tu_edpt_bind_driver
 .text          0x000fb2c0       0x3c _build/build-tk_kb_18010/gcc_startup_nrf52840.o
                0x000fb2c0                Reset_Handler
                0x000fb2e8                NMI_Handler
                0x000fb2ea                HardFault_Handler
                0x000fb2ec                MemoryManagement_Handler
                0x000fb2ee                BusFault_Handler
                0x000fb2f0                UsageFault_Handler
                0x000fb2f4                DebugMon_Handler
                0x000fb2f6                PendSV_Handler
                0x000fb2fa                TIMER2_IRQHandler
                0x000fb2fa                RTC0_IRQHandler
                0x000fb2fa                GPIOTE_IRQHandler
                0x000fb2fa                PWM1_IRQHandler
                0x000fb2fa                RADIO_IRQHandler
                0x000fb2fa                PDM_IRQHandler
                0x000fb2fa                TEMP_IRQHandler
                0x000fb2fa                QDEC_IRQHandler
                0x000fb2fa                TIMER3_IRQHandler
                0x000fb2fa                PWM3_IRQHandler
                0x000fb2fa                FPU_IRQHandler
                0x000fb2fa                SPIM0_SPIS0_TWIM0_TWIS0_SPI0_TWI0_IRQHandler
                0x000fb2fa                UARTE0_UART0_IRQHandler
                0x000fb2fa                TIMER4_IRQHandler
                0x000fb2fa                CRYPTOCELL_IRQHandler
                0x000fb2fa                I2S_IRQHandler
                0x000fb2fa                SWI4_EGU4_IRQHandler
                0x000fb2fa                TIMER0_IRQHandler
                0x000fb2fa                UARTE1_IRQHandler
                0x000fb2fa                TIMER1_IRQHandler
                0x000fb2fa                SPIM3_IRQHandler
                0x000fb2fa                PWM2_IRQHandler
                0x000fb2fa                ECB_IRQHandler
                0x000fb2fa                SPIM1_SPIS1_TWIM1_TWIS1_SPI1_TWI1_IRQHandler
                0x000fb2fa                Default_Handler
                0x000fb2fa                SAADC_IRQHandler
                0x000fb2fa                CCM_AAR_IRQHandler
                0x000fb2fa                WDT_IRQHandler
                0x000fb2fa                SWI5_EGU5_IRQHandler
                0x000fb2fa                RNG_IRQHandler
                0x000fb2fa                RTC2_IRQHandler
                0x000fb2fa                PWM0_IRQHandler
                0x000fb2fa                SWI3_EGU3_IRQHandler
                0x000fb2fa                SWI1_EGU1_IRQHandler
                0x000fb2fa                SPIM2_SPIS2_SPI2_IRQHandler
                0x000fb2fa                NFCT_IRQHandler
                0x000fb2fa                MWU_IRQHandler
                0x000fb2fa                QSPI_IRQHandler
                0x000fb2fa                COMP_LPCOMP_IRQHandler
 .text          0x000fb2fc       0x40 /usr/lib/gcc/arm-none-eabi/13.2.1/../../../arm-none-eabi/lib/thumb/v7e-m+fp/hard/libc_nano.a(libc_a-strcat.o)
                0x000fb2fc                strcat
 .text          0x000fb33c       0xbc /usr/lib/gcc/arm-none-eabi/13.2.1/../../../arm-none-eabi/lib/thumb/v7e-m+fp/hard/libc_nano.a(libc_a-strcpy.o)
                0x000fb33c                strcpy
 .text          0x000fb3f8       0xa0 /usr/lib/gcc/arm-none-eabi/13.2.1/../../../arm-none-eabi/lib/thumb/v7e-m+fp/hard/libc_nano.a(libc_a-utoa.o)
                0x000fb3f8                __utoa
                0x000fb494                utoa
 *fill*         0x000fb498       0x28 
 .text          0x000fb4c0       0xd8 /usr/lib/gcc/arm-none-eabi/13.2.1/../../../arm-none-eabi/lib/thumb/v7e-m+fp/hard/libc_nano.a(libc_a-strlen.o)
                0x000fb4c0                strlen
 .text          0x000fb598      0x100 /usr/lib/gcc/arm-none-eabi/13.2.1/../../../arm-none-eabi/lib/thumb/v7e-m+fp/hard/libc_nano.a(libc_a-memmove.o)
                0x000fb598                memmove
 .text          0x000fb698      0x134 /usr/lib/gcc/arm-none-eabi/13.2.1/../../../arm-none-eabi/lib/thumb/v7e-m+fp/hard/libc_nano.a(libc_a-memcpy.o)
                0x000fb698                memcpy
 .text          0x000fb7cc       0x5c /usr/lib/gcc/arm-none-eabi/13.2.1/../../../arm-none-eabi/lib/thumb/v7e-m+fp/hard/libc_nano.a(libc_a-memcmp.o)
                0x000fb7cc                memcmp
 .text          0x000fb828       0x30 /usr/lib/gcc/arm-none-eabi/13.2.1/thumb/v7e-m+fp/hard/libgcc.a(_aeabi_uldivmod.o)
                0x000fb828                __aeabi_uldivmod
 .text          0x000fb858      0x2bc /usr/lib/gcc/arm-none-eabi/13.2.1/thumb/v7e-m+fp/hard/libgcc.a(_udivmoddi4.o)
                0x000fb858                __udivmoddi4
 .text          0x000fbb14        0x4 /usr/lib/gcc/arm-none-eabi/13.2.1/thumb/v7e-m+fp/hard/libgcc.a(_dvmd_tls.o)
                0x000fbb14                __aeabi_ldiv0
                0x000fbb14                __aeabi_idiv0
 *(.init)
 .init          0x000fbb18        0x4 /usr/lib/gcc/arm-none-eabi/13.2.1/thumb/v7e-m+fp/hard/crti.o
                0x000fbb18                _init
 .init          0x000fbb1c        0x8 /usr/lib/gcc/arm-none-eabi/13.2.1/thumb/v7e-m+fp/hard/crtn.o
 *(.fini)
 .fini          0x000fbb24        0x4 /usr/lib/gcc/arm-none-eabi/13.2.1/thumb/v7e-m+fp/hard/crti.o
                0x000fbb24                _fini
 .fini          0x000fbb28        0x8 /usr/lib/gcc/arm-none-eabi/13.2.1/thumb/v7e-m+fp/hard/crtn.o
 *crtbegin.o(.ctors)
 *crtbegin?.o(.ctors)
 *(EXCLUDE_FILE(*crtend.o *crtend?.o) .ctors)
 *(SORT_BY_NAME(.ctors.*))
 *(.ctors)
 *crtbegin.o(.dtors)
 *crtbegin?.o(.dtors)
 *(EXCLUDE_FILE(*crtend.o *crtend?.o) .dtors)
 *(SORT_BY_NAME(.dtors.*))
 *(.dtors)
 *(.rodata*)
 .rodata.CSWTCH.67
                0x000fbb30        0x3 _build/build-tk_kb_18010/main.o
 *fill*         0x000fbb33        0xd 
 .rodata.delay_machine_code.0
                0x000fbb40        0x6 _build/build-tk_kb_18010/main.o
 .rodata        0x000fbb46        0x4 _build/build-tk_kb_18010/main.o
 *fill*         0x000fbb4a        0x6 
 .rodata.delay_machine_code.0
                0x000fbb50        0x6 _build/build-tk_kb_18010/boards.o
 *fill*         0x000fbb56        0xa 
 .rodata.delay_machine_code.0
                0x000fbb60        0x6 _build/build-tk_kb_18010/bootloader.o
 *fill*         0x000fbb66        0x2 
 .rodata._dfu_startup_timer
                0x000fbb68        0x4 _build/build-tk_kb_18010/bootloader.o
 .rodata.advertising_start.str1.1
                0x000fbb6c       0x7c _build/build-tk_kb_18010/dfu_transport_ble.o
                                  0x7 (size before relaxing)
 .rodata.dfu_transport_ble_update_start.str1.1
                0x000fbbe8       0x2b _build/build-tk_kb_18010/dfu_transport_ble.o
 .rodata        0x000fbbe8       0x10 _build/build-tk_kb_18010/dfu_transport_ble.o
 .rodata        0x000fbbf8       0x10 _build/build-tk_kb_18010/ble_dfu.o
 .rodata.m_app_timer_id
                0x000fbc08        0x4 _build/build-tk_kb_18010/hci_transport.o
 .rodata.tud_msc_inquiry_cb.str1.1
                0x000fbc0c       0x11 _build/build-tk_kb_18010/msc_uf2.o
 .rodata.usb_desc_init.str1.1
                0x000fbc0c       0x11 _build/build-tk_kb_18010/usb_desc.o
 .rodata.str1.1
                0x000fbc0c       0x2d _build/build-tk_kb_18010/usb_desc.o
 .rodata.__compound_literal.0
                0x000fbc0c        0x2 _build/build-tk_kb_18010/usb_desc.o
 .rodata.uf2_init.str1.1
                0x000fbc0e       0x22 _build/build-tk_kb_18010/ghostfat.o
 .rodata.BootBlock
                0x000fbc0e       0x3e _build/build-tk_kb_18010/ghostfat.o
 .rodata.info   0x000fbc4c       0x30 _build/build-tk_kb_18010/ghostfat.o
 .rodata.indexFile
                0x000fbc7c       0x7f _build/build-tk_kb_18010/ghostfat.o
                0x000fbc7c                indexFile
 *fill*         0x000fbcfb        0x1 
 .rodata._usbd_driver
                0x000fbcfc       0x30 _build/build-tk_kb_18010/usbd.o
 .rodata.str1.4
                0x000fbd2c       0x25 /usr/lib/gcc/arm-none-eabi/13.2.1/../../../arm-none-eabi/lib/thumb/v7e-m+fp/hard/libc_nano.a(libc_a-utoa.o)
 *(.eh_frame*)
 *fill*         0x000fbd51        0x3 
 .eh_frame      0x000fbd54        0x0 /usr/lib/gcc/arm-none-eabi/13.2.1/thumb/v7e-m+fp/hard/crtbegin.o
 .eh_frame      0x000fbd54       0x34 /usr/lib/gcc/arm-none-eabi/13.2.1/../../../arm-none-eabi/lib/thumb/v7e-m+fp/hard/libc_nano.a(libc_a-strlen.o)
 .eh_frame      0x000fbd88       0x2c /usr/lib/gcc/arm-none-eabi/13.2.1/../../../arm-none-eabi/lib/thumb/v7e-m+fp/hard/libc_nano.a(libc_a-memcpy.o)
 .eh_frame      0x000fbdb4        0x4 /usr/lib/gcc/arm-none-eabi/13.2.1/thumb/v7e-m+fp/hard/crtend.o

.glue_7         0x000fbdb8        0x0
 .glue_7        0x000fbdb8        0x0 linker stubs

.glue_7t        0x000fbdb8        0x0
 .glue_7t       0x000fbdb8        0x0 linker stubs

.vfp11_veneer   0x000fbdb8        0x0
 .vfp11_veneer  0x000fbdb8        0x0 linker stubs

.v4_bx          0x000fbdb8        0x0
 .v4_bx         0x000fbdb8        0x0 linker stubs

.iplt           0x000fbdb8        0x0
 .iplt          0x000fbdb8        0x0 /usr/lib/gcc/arm-none-eabi/13.2.1/thumb/v7e-m+fp/hard/crtbegin.o

.ARM.extab
 *(.ARM.extab* .gnu.linkonce.armextab.*)
                0x000fbdb8                        __exidx_start = .

.ARM.exidx      0x000fbdb8        0x8
 *(.ARM.exidx* .gnu.linkonce.armexidx.*)
 .ARM.exidx     0x000fbdb8        0x8 /usr/lib/gcc/arm-none-eabi/13.2.1/../../../arm-none-eabi/lib/thumb/v7e-m+fp/hard/crt0.o
                                 0x10 (size before relaxing)
 .ARM.exidx     0x000fbdc0        0x0 /usr/lib/gcc/arm-none-eabi/13.2.1/../../../arm-none-eabi/lib/thumb/v7e-m+fp/hard/libc_nano.a(libc_a-strlen.o)
                                  0x8 (size before relaxing)
 .ARM.exidx     0x000fbdc0        0x0 /usr/lib/gcc/arm-none-eabi/13.2.1/../../../arm-none-eabi/lib/thumb/v7e-m+fp/hard/libc_nano.a(libc_a-memcpy.o)
                                  0x8 (size before relaxing)
 .ARM.exidx     0x000fbdc0        0x0 /usr/lib/gcc/arm-none-eabi/13.2.1/thumb/v7e-m+fp/hard/libgcc.a(_udivmoddi4.o)
                                  0x8 (size before relaxing)
                0x000fbdc0                        __exidx_end = .
                0x000fbdc0                        __etext = .

.rel.dyn        0x000fbdc0        0x0
 .rel.iplt      0x000fbdc0        0x0 /usr/lib/gcc/arm-none-eabi/13.2.1/thumb/v7e-m+fp/hard/crtbegin.o

.data           0x20008000      0x2a0 load address 0x000fbdc0
                0x20008000                        __data_start__ = .
 *(vtable)
 *(.data*)
 .data._fl_addr
                0x20008000        0x4 _build/build-tk_kb_18010/flash_nrf5x.o
 .data.dbl_reset_mem
                0x20008004        0x4 _build/build-tk_kb_18010/main.o
                0x20008004                dbl_reset_mem
 .data.SystemCoreClock
                0x20008008        0x4 _build/build-tk_kb_18010/system_nrf52840.o
                0x20008008                SystemCoreClock
 .data._adv_handle
                0x2000800c        0x1 _build/build-tk_kb_18010/dfu_transport_ble.o
 *fill*         0x2000800d        0x3 
 .data.m_direct_adv_cnt
                0x20008010        0x4 _build/build-tk_kb_18010/dfu_transport_ble.o
 .data.m_conn_handle
                0x20008014        0x2 _build/build-tk_kb_18010/dfu_transport_ble.o
 *fill*         0x20008016        0x2 
 .data.send_tx_byte
                0x20008018        0x4 _build/build-tk_kb_18010/hci_slip.o
                0x20008018                send_tx_byte
 .data.handle_rx_byte
                0x2000801c        0x4 _build/build-tk_kb_18010/hci_slip.o
 .data.first_write.0
                0x20008020        0x1 _build/build-tk_kb_18010/msc_uf2.o
 *fill*         0x20008021        0x3 
 .data.string_desc_arr
                0x20008024       0x18 _build/build-tk_kb_18010/usb_desc.o
                0x20008024                string_desc_arr
 .data.desc_configuration_cdc_only
                0x2000803c       0x4b _build/build-tk_kb_18010/usb_desc.o
                0x2000803c                desc_configuration_cdc_only
 .data.desc_configuration_cdc_msc
                0x20008087       0x62 _build/build-tk_kb_18010/usb_desc.o
                0x20008087                desc_configuration_cdc_msc
 .data.desc_device
                0x200080e9       0x12 _build/build-tk_kb_18010/usb_desc.o
                0x200080e9                desc_device
 .data.infoUf2File
                0x200080fb      0x180 _build/build-tk_kb_18010/ghostfat.o
                0x200080fb                infoUf2File
 *fill*         0x2000827b        0x1 
 .data._usbd_qdef
                0x2000827c       0x18 _build/build-tk_kb_18010/usbd.o
                0x2000827c                _usbd_qdef
                0x20008294                        . = ALIGN (0x4)
                0x20008294                        PROVIDE (__preinit_array_start = .)
 *(.preinit_array)
                0x20008294                        PROVIDE (__preinit_array_end = .)
                0x20008294                        . = ALIGN (0x4)
                0x20008294                        PROVIDE (__init_array_start = .)
 *(SORT_BY_NAME(.init_array.*))
 .init_array.00000
                0x20008294        0x4 /usr/lib/gcc/arm-none-eabi/13.2.1/../../../arm-none-eabi/lib/thumb/v7e-m+fp/hard/libc.a(libc_a-__call_atexit.o)
 *(.init_array)
 .init_array    0x20008298        0x4 /usr/lib/gcc/arm-none-eabi/13.2.1/thumb/v7e-m+fp/hard/crtbegin.o
                0x2000829c                        PROVIDE (__init_array_end = .)
                0x2000829c                        . = ALIGN (0x4)
                0x2000829c                        PROVIDE (__fini_array_start = .)
 *(SORT_BY_NAME(.fini_array.*))
 *(.fini_array)
 .fini_array    0x2000829c        0x4 /usr/lib/gcc/arm-none-eabi/13.2.1/thumb/v7e-m+fp/hard/crtbegin.o
                0x200082a0                        PROVIDE (__fini_array_end = .)
 *(.jcr*)
                0x200082a0                        . = ALIGN (0x4)
                0x200082a0                        __data_end__ = .

.tm_clone_table
                0x200082a0        0x0 load address 0x000fc060
 .tm_clone_table
                0x200082a0        0x0 /usr/lib/gcc/arm-none-eabi/13.2.1/thumb/v7e-m+fp/hard/crtbegin.o
 .tm_clone_table
                0x200082a0        0x0 /usr/lib/gcc/arm-none-eabi/13.2.1/thumb/v7e-m+fp/hard/crtend.o

.igot.plt       0x200082a0        0x0 load address 0x000fc060
 .igot.plt      0x200082a0        0x0 /usr/lib/gcc/arm-none-eabi/13.2.1/thumb/v7e-m+fp/hard/crtbegin.o

.bss            0x200082a0     0x4a94 load address 0x000fc060
                0x200082a0                        . = ALIGN (0x4)
                0x200082a0                        __bss_start__ = .
 *(.bss*)
 .bss           0x200082a0       0x1c /usr/lib/gcc/arm-none-eabi/13.2.1/thumb/v7e-m+fp/hard/crtbegin.o
 .bss           0x200082bc        0x4 /usr/lib/gcc/arm-none-eabi/13.2.1/../../../arm-none-eabi/lib/thumb/v7e-m+fp/hard/libc.a(libc_a-__call_atexit.o)
                0x200082bc                __atexit
 .bss           0x200082c0      0x190 /usr/lib/gcc/arm-none-eabi/13.2.1/../../../arm-none-eabi/lib/thumb/v7e-m+fp/hard/libc.a(libc_a-__atexit.o)
                0x200082c0                __atexit0
 .bss           0x20008450      0x13c /usr/lib/gcc/arm-none-eabi/13.2.1/../../../arm-none-eabi/lib/thumb/v7e-m+fp/hard/libc.a(libc_a-findfp.o)
                0x20008450                __sf
                0x20008588                __stdio_exit_handler
 .bss.m_extended_packet
                0x2000858c        0xa _build/build-tk_kb_18010/dfu_init.o
 *fill*         0x20008596        0x2 
 .bss._fl_buf   0x20008598     0x1000 _build/build-tk_kb_18010/flash_nrf5x.o
 .bss._sd_inited
                0x20009598        0x1 _build/build-tk_kb_18010/main.o
                0x20009598                _sd_inited
 .bss._ota_connected
                0x20009599        0x1 _build/build-tk_kb_18010/main.o
                0x20009599                _ota_connected
 .bss._ota_dfu  0x2000959a        0x1 _build/build-tk_kb_18010/main.o
                0x2000959a                _ota_dfu
 *fill*         0x2000959b        0x1 
 .bss.APP_SCHED_BUF.1
                0x2000959c      0x1f0 _build/build-tk_kb_18010/boards.o
 .bss.rgb_color
                0x2000978c        0x4 _build/build-tk_kb_18010/boards.o
 .bss.primary_cycle_length
                0x20009790        0x4 _build/build-tk_kb_18010/boards.o
 .bss.led_duty_cycles
                0x20009794        0x8 _build/build-tk_kb_18010/boards.o
 .bss._systick_count
                0x2000979c        0x4 _build/build-tk_kb_18010/boards.o
 .bss.m_usbevt_handler
                0x200097a0        0x4 _build/build-tk_kb_18010/nrfx_power.o
 .bss.m_sleepevt_handler
                0x200097a4        0x4 _build/build-tk_kb_18010/nrfx_power.o
 .bss.m_pofwarn_handler
                0x200097a8        0x4 _build/build-tk_kb_18010/nrfx_power.o
 .bss.nrfx_power_irq_enabled
                0x200097ac        0x1 _build/build-tk_kb_18010/nrfx_power.o
                0x200097ac                nrfx_power_irq_enabled
 *fill*         0x200097ad        0x3 
 .bss.settings.1
                0x200097b0       0x1c _build/build-tk_kb_18010/bootloader.o
 .bss.dfu_startup_packet_received
                0x200097cc        0x1 _build/build-tk_kb_18010/bootloader.o
                0x200097cc                dfu_startup_packet_received
 *fill*         0x200097cd        0x3 
 .bss._dfu_startup_timer_data
                0x200097d0       0x20 _build/build-tk_kb_18010/bootloader.o
 .bss.m_cancel_timeout_on_usb
                0x200097f0        0x1 _build/build-tk_kb_18010/bootloader.o
 .bss.m_update_status
                0x200097f1        0x1 _build/build-tk_kb_18010/bootloader.o
 *fill*         0x200097f2        0x2 
 .bss.m_bootsettings_handle
                0x200097f4        0x8 _build/build-tk_kb_18010/bootloader.o
 .bss.m_data_queue
                0x200097fc       0x34 _build/build-tk_kb_18010/dfu_transport_serial.o
 .bss.adv_buf.0
                0x20009830       0x1f _build/build-tk_kb_18010/dfu_transport_ble.o
 *fill*         0x2000984f        0x1 
 .bss.gap_adv.1
                0x20009850       0x10 _build/build-tk_kb_18010/dfu_transport_ble.o
 .bss.m_gap_ids
                0x20009860        0x4 _build/build-tk_kb_18010/dfu_transport_ble.o
 .bss.m_whitelist
                0x20009864        0x4 _build/build-tk_kb_18010/dfu_transport_ble.o
 .bss.mp_final_packet
                0x20009868        0x4 _build/build-tk_kb_18010/dfu_transport_ble.o
 .bss.m_ble_peer_data_valid
                0x2000986c        0x1 _build/build-tk_kb_18010/dfu_transport_ble.o
 *fill*         0x2000986d        0x1 
 .bss.m_ble_peer_data
                0x2000986e       0x3c _build/build-tk_kb_18010/dfu_transport_ble.o
 .bss.m_is_advertising
                0x200098aa        0x1 _build/build-tk_kb_18010/dfu_transport_ble.o
 .bss.m_pkt_rcpt_notif_enabled
                0x200098ab        0x1 _build/build-tk_kb_18010/dfu_transport_ble.o
 .bss.m_tear_down_in_progress
                0x200098ac        0x1 _build/build-tk_kb_18010/dfu_transport_ble.o
 *fill*         0x200098ad        0x3 
 .bss.mp_rx_buffer
                0x200098b0        0x4 _build/build-tk_kb_18010/dfu_transport_ble.o
 .bss.m_pkt_notif_target_cnt
                0x200098b4        0x2 _build/build-tk_kb_18010/dfu_transport_ble.o
 .bss.m_pkt_notif_target
                0x200098b6        0x2 _build/build-tk_kb_18010/dfu_transport_ble.o
 .bss.m_num_of_firmware_bytes_rcvd
                0x200098b8        0x4 _build/build-tk_kb_18010/dfu_transport_ble.o
 .bss.m_update_mode
                0x200098bc        0x1 _build/build-tk_kb_18010/dfu_transport_ble.o
 .bss.m_pkt_type
                0x200098bd        0x1 _build/build-tk_kb_18010/dfu_transport_ble.o
 *fill*         0x200098be        0x2 
 .bss.m_dfu     0x200098c0       0x30 _build/build-tk_kb_18010/dfu_transport_ble.o
 .bss.m_sec_params
                0x200098f0        0x5 _build/build-tk_kb_18010/dfu_transport_ble.o
 *fill*         0x200098f5        0x3 
 .bss.m_functions
                0x200098f8        0xc _build/build-tk_kb_18010/dfu_single_bank.o
 .bss.m_data_pkt_cb
                0x20009904        0x4 _build/build-tk_kb_18010/dfu_single_bank.o
 .bss.mp_storage_handle_active
                0x20009908        0x4 _build/build-tk_kb_18010/dfu_single_bank.o
 .bss.m_storage_handle_app
                0x2000990c        0x8 _build/build-tk_kb_18010/dfu_single_bank.o
 .bss.m_image_crc
                0x20009914        0x2 _build/build-tk_kb_18010/dfu_single_bank.o
 .bss.m_init_packet_length
                0x20009916        0x1 _build/build-tk_kb_18010/dfu_single_bank.o
 .bss.m_init_packet
                0x20009917       0x40 _build/build-tk_kb_18010/dfu_single_bank.o
 *fill*         0x20009957        0x1 
 .bss.m_start_packet
                0x20009958       0x10 _build/build-tk_kb_18010/dfu_single_bank.o
 .bss.m_image_size
                0x20009968        0x4 _build/build-tk_kb_18010/dfu_single_bank.o
 .bss.m_dfu_state
                0x2000996c        0x1 _build/build-tk_kb_18010/dfu_single_bank.o
 *fill*         0x2000996d        0x3 
 .bss.m_data_received
                0x20009970        0x4 _build/build-tk_kb_18010/dfu_single_bank.o
 .bss.m_notif_buffer
                0x20009974        0x7 _build/build-tk_kb_18010/ble_dfu.o
 .bss.m_is_dfu_service_initialized
                0x2000997b        0x1 _build/build-tk_kb_18010/ble_dfu.o
 .bss.pnp_id_handles
                0x2000997c        0x8 _build/build-tk_kb_18010/ble_dis.o
 .bss.fw_rev_handles
                0x20009984        0x8 _build/build-tk_kb_18010/ble_dis.o
 .bss.model_num_handles
                0x2000998c        0x8 _build/build-tk_kb_18010/ble_dis.o
 .bss.manufact_name_handles
                0x20009994        0x8 _build/build-tk_kb_18010/ble_dis.o
 .bss.service_handle
                0x2000999c        0x2 _build/build-tk_kb_18010/ble_dis.o
 *fill*         0x2000999e        0x2 
 .bss.m_round_val
                0x200099a0        0x4 _build/build-tk_kb_18010/pstorage_raw.o
 .bss.m_next_app_instance
                0x200099a4        0x4 _build/build-tk_kb_18010/pstorage_raw.o
 .bss.m_app_table
                0x200099a8       0x10 _build/build-tk_kb_18010/pstorage_raw.o
 .bss.m_cmd_queue
                0x200099b8       0xf4 _build/build-tk_kb_18010/pstorage_raw.o
 .bss.m_rtc1_reset
                0x20009aac        0x1 _build/build-tk_kb_18010/app_timer.o
 .bss.m_rtc1_running
                0x20009aad        0x1 _build/build-tk_kb_18010/app_timer.o
 .bss.m_ticks_elapsed_q_write_ind
                0x20009aae        0x1 _build/build-tk_kb_18010/app_timer.o
 .bss.m_ticks_elapsed_q_read_ind
                0x20009aaf        0x1 _build/build-tk_kb_18010/app_timer.o
 .bss.m_ticks_elapsed
                0x20009ab0        0x8 _build/build-tk_kb_18010/app_timer.o
 .bss.m_ticks_latest
                0x20009ab8        0x4 _build/build-tk_kb_18010/app_timer.o
 .bss.mp_timer_id_head
                0x20009abc        0x4 _build/build-tk_kb_18010/app_timer.o
 .bss.m_op_queue
                0x20009ac0      0x10c _build/build-tk_kb_18010/app_timer.o
 .bss.m_queue_size
                0x20009bcc        0x2 _build/build-tk_kb_18010/app_scheduler.o
 .bss.m_queue_event_size
                0x20009bce        0x2 _build/build-tk_kb_18010/app_scheduler.o
 .bss.m_queue_end_index
                0x20009bd0        0x1 _build/build-tk_kb_18010/app_scheduler.o
 .bss.m_queue_start_index
                0x20009bd1        0x1 _build/build-tk_kb_18010/app_scheduler.o
 *fill*         0x20009bd2        0x2 
 .bss.m_queue_event_data
                0x20009bd4        0x4 _build/build-tk_kb_18010/app_scheduler.o
 .bss.m_queue_event_headers
                0x20009bd8        0x4 _build/build-tk_kb_18010/app_scheduler.o
 .bss.nrf_nvic_state
                0x20009bdc        0xc _build/build-tk_kb_18010/app_util_platform.o
                0x20009bdc                nrf_nvic_state
 .bss.m_rx_buffer_queue
                0x20009be8       0x1c _build/build-tk_kb_18010/hci_mem_pool.o
 .bss.m_rx_buffer_elem_queue
                0x20009c04     0x12e0 _build/build-tk_kb_18010/hci_mem_pool.o
 .bss.m_is_tx_allocated
                0x2000aee4        0x1 _build/build-tk_kb_18010/hci_mem_pool.o
 *fill*         0x2000aee5        0x3 
 .bss.m_rx_received_count
                0x2000aee8        0x4 _build/build-tk_kb_18010/hci_slip.o
 .bss.m_rx_buffer_length
                0x2000aeec        0x4 _build/build-tk_kb_18010/hci_slip.o
 .bss.mp_rx_buffer
                0x2000aef0        0x4 _build/build-tk_kb_18010/hci_slip.o
 .bss.m_tx_buffer_index
                0x2000aef4        0x4 _build/build-tk_kb_18010/hci_slip.o
 .bss.m_tx_buffer_length
                0x2000aef8        0x4 _build/build-tk_kb_18010/hci_slip.o
 .bss.mp_tx_buffer
                0x2000aefc        0x4 _build/build-tk_kb_18010/hci_slip.o
 .bss.m_slip_event_handler
                0x2000af00        0x4 _build/build-tk_kb_18010/hci_slip.o
 .bss.m_current_state
                0x2000af04        0x1 _build/build-tk_kb_18010/hci_slip.o
 .bss.ack_packet.0
                0x2000af05        0x4 _build/build-tk_kb_18010/hci_transport.o
 .bss.m_rx_ack_buffer
                0x2000af09        0x5 _build/build-tk_kb_18010/hci_transport.o
 .bss.m_tx_done_result_code
                0x2000af0e        0x1 _build/build-tk_kb_18010/hci_transport.o
 *fill*         0x2000af0f        0x1 
 .bss.m_tx_retry_counter
                0x2000af10        0x4 _build/build-tk_kb_18010/hci_transport.o
 .bss.m_app_timer_id_data
                0x2000af14       0x20 _build/build-tk_kb_18010/hci_transport.o
 .bss.m_is_slip_decode_ready
                0x2000af34        0x1 _build/build-tk_kb_18010/hci_transport.o
 *fill*         0x2000af35        0x3 
 .bss.m_tx_buffer_length
                0x2000af38        0x4 _build/build-tk_kb_18010/hci_transport.o
 .bss.mp_tx_buffer
                0x2000af3c        0x4 _build/build-tk_kb_18010/hci_transport.o
 .bss.m_packet_transmit_seq_number
                0x2000af40        0x4 _build/build-tk_kb_18010/hci_transport.o
 .bss.m_packet_expected_seq_number
                0x2000af44        0x4 _build/build-tk_kb_18010/hci_transport.o
 .bss.mp_slip_used_rx_buffer
                0x2000af48        0x4 _build/build-tk_kb_18010/hci_transport.o
 .bss.m_transport_event_handle
                0x2000af4c        0x4 _build/build-tk_kb_18010/hci_transport.o
 .bss.m_transport_tx_done_handle
                0x2000af50        0x4 _build/build-tk_kb_18010/hci_transport.o
 .bss.m_tx_state
                0x2000af54        0x1 _build/build-tk_kb_18010/hci_transport.o
 *fill*         0x2000af55        0x3 
 .bss._wr_state
                0x2000af58      0x21c _build/build-tk_kb_18010/msc_uf2.o
 .bss._desc_str
                0x2000b174       0x82 _build/build-tk_kb_18010/usb_desc.o
 .bss.desc_str_serial
                0x2000b1f6       0x11 _build/build-tk_kb_18010/usb_desc.o
 .bss._cdc_only
                0x2000b207        0x1 _build/build-tk_kb_18010/usb_desc.o
 .bss._dcd      0x2000b208       0xdc _build/build-tk_kb_18010/dcd_nrf5x.o
 .bss._usbd_q   0x2000b2e4        0x4 _build/build-tk_kb_18010/usbd.o
 .bss._usbd_qdef_buf
                0x2000b2e8       0xc0 _build/build-tk_kb_18010/usbd.o
                0x2000b2e8                _usbd_qdef_buf
 .bss._usbd_initialized
                0x2000b3a8        0x1 _build/build-tk_kb_18010/usbd.o
 .bss._app_driver_count
                0x2000b3a9        0x1 _build/build-tk_kb_18010/usbd.o
 *fill*         0x2000b3aa        0x2 
 .bss._app_driver
                0x2000b3ac        0x4 _build/build-tk_kb_18010/usbd.o
 .bss._usbd_dev
                0x2000b3b0       0x37 _build/build-tk_kb_18010/usbd.o
 *fill*         0x2000b3e7        0x1 
 .bss._usbd_ctrl_buf
                0x2000b3e8       0x40 _build/build-tk_kb_18010/usbd_control.o
 .bss._ctrl_xfer
                0x2000b428       0x14 _build/build-tk_kb_18010/usbd_control.o
 .bss._cdcd_itf
                0x2000b43c      0x8b8 _build/build-tk_kb_18010/cdc_device.o
 .bss._mscd_buf
                0x2000bcf4     0x1000 _build/build-tk_kb_18010/msc_device.o
 .bss._mscd_itf
                0x2000ccf4       0x40 _build/build-tk_kb_18010/msc_device.o
 *(COMMON)
                0x2000cd34                        . = ALIGN (0x4)
                0x2000cd34                        __bss_end__ = .

.heap           0x2000cd38        0x0
                0x2000cd38                        __HeapBase = .
                0x2000cd38                        __end__ = .
                0x2000cd38                        PROVIDE (end = .)
 *(.heap*)
 .heap          0x2000cd38        0x0 _build/build-tk_kb_18010/gcc_startup_nrf52840.o
                0x2000cd38                        __HeapLimit = .

.stack_dummy    0x2000cd38     0x2000
 *(.stack*)
 .stack         0x2000cd38     0x2000 _build/build-tk_kb_18010/gcc_startup_nrf52840.o
                0x20040000                        __StackTop = (ORIGIN (RAM) + LENGTH (RAM))
                0x2003e000                        __StackLimit = (__StackTop - SIZEOF (.stack_dummy))
                0x20040000                        PROVIDE (__stack = __StackTop)
                0x00000001                        ASSERT ((__StackLimit >= __HeapLimit), region RAM overflowed with stack)
                0x000002a0                        DataInitFlashUsed = (__bss_start__ - __data_start__)
                0x00007dc0                        CodeFlashUsed = (__etext - ORIGIN (FLASH))
                0x00008060                        TotalFlashUsed = (CodeFlashUsed + DataInitFlashUsed)
                0x00000001                        ASSERT ((TotalFlashUsed <= LENGTH (FLASH)), region FLASH overflowed with .data and user data)
LOAD _build/build-tk_kb_18010/dfu_ble_svc.o
LOAD _build/build-tk_kb_18010/dfu_init.o
LOAD _build/build-tk_kb_18010/flash_nrf5x.o
LOAD _build/build-tk_kb_18010/main.o
LOAD _build/build-tk_kb_18010/screen.o
LOAD _build/build-tk_kb_18010/images.o
LOAD _build/build-tk_kb_18010/boards.o
LOAD _build/build-tk_kb_18010/nrfx_power.o
LOAD _build/build-tk_kb_18010/nrfx_nvmc.o
LOAD _build/build-tk_kb_18010/system_nrf52840.o
LOAD _build/build-tk_kb_18010/bootloader.o
LOAD _build/build-tk_kb_18010/bootloader_settings.o
LOAD _build/build-tk_kb_18010/bootloader_util.o
LOAD _build/build-tk_kb_18010/dfu_transport_serial.o
LOAD _build/build-tk_kb_18010/dfu_transport_ble.o
LOAD _build/build-tk_kb_18010/dfu_single_bank.o
LOAD _build/build-tk_kb_18010/ble_dfu.o
LOAD _build/build-tk_kb_18010/ble_dis.o
LOAD _build/build-tk_kb_18010/pstorage_raw.o
LOAD _build/build-tk_kb_18010/app_timer.o
LOAD _build/build-tk_kb_18010/app_scheduler.o
LOAD _build/build-tk_kb_18010/app_error.o
LOAD _build/build-tk_kb_18010/app_util_platform.o
LOAD _build/build-tk_kb_18010/crc16.o
LOAD _build/build-tk_kb_18010/hci_mem_pool.o
LOAD _build/build-tk_kb_18010/hci_slip.o
LOAD _build/build-tk_kb_18010/hci_transport.o
LOAD _build/build-tk_kb_18010/nrf_assert.o
LOAD _build/build-tk_kb_18010/pinconfig.o
LOAD _build/build-tk_kb_18010/msc_uf2.o
LOAD _build/build-tk_kb_18010/usb_desc.o
LOAD _build/build-tk_kb_18010/usb.o
LOAD _build/build-tk_kb_18010/ghostfat.o
LOAD _build/build-tk_kb_18010/dcd_nrf5x.o
LOAD _build/build-tk_kb_18010/tusb_fifo.o
LOAD _build/build-tk_kb_18010/usbd.o
LOAD _build/build-tk_kb_18010/usbd_control.o
LOAD _build/build-tk_kb_18010/cdc_device.o
LOAD _build/build-tk_kb_18010/msc_device.o
LOAD _build/build-tk_kb_18010/tusb.o
LOAD _build/build-tk_kb_18010/gcc_startup_nrf52840.o
START GROUP
LOAD /usr/lib/gcc/arm-none-eabi/13.2.1/../../../arm-none-eabi/lib/thumb/v7e-m+fp/hard/libm.a
LOAD /usr/lib/gcc/arm-none-eabi/13.2.1/../../../arm-none-eabi/lib/thumb/v7e-m+fp/hard/libc_nano.a
END GROUP
START GROUP
LOAD /usr/lib/gcc/arm-none-eabi/13.2.1/thumb/v7e-m+fp/hard/libgcc.a
LOAD /usr/lib/gcc/arm-none-eabi/13.2.1/../../../arm-none-eabi/lib/thumb/v7e-m+fp/hard/libg_nano.a
LOAD /usr/lib/gcc/arm-none-eabi/13.2.1/../../../arm-none-eabi/lib/thumb/v7e-m+fp/hard/libc_nano.a
END GROUP
START GROUP
LOAD /usr/lib/gcc/arm-none-eabi/13.2.1/thumb/v7e-m+fp/hard/libgcc.a
LOAD /usr/lib/gcc/arm-none-eabi/13.2.1/../../../arm-none-eabi/lib/thumb/v7e-m+fp/hard/libc_nano.a
LOAD /usr/lib/gcc/arm-none-eabi/13.2.1/../../../arm-none-eabi/lib/thumb/v7e-m+fp/hard/libnosys.a
END GROUP
START GROUP
LOAD /usr/lib/gcc/arm-none-eabi/13.2.1/thumb/v7e-m+fp/hard/libgcc.a
LOAD /usr/lib/gcc/arm-none-eabi/13.2.1/../../../arm-none-eabi/lib/thumb/v7e-m+fp/hard/libc_nano.a
LOAD /usr/lib/gcc/arm-none-eabi/13.2.1/../../../arm-none-eabi/lib/thumb/v7e-m+fp/hard/libnosys.a
END GROUP
LOAD /usr/lib/gcc/arm-none-eabi/13.2.1/thumb/v7e-m+fp/hard/crtend.o
LOAD /usr/lib/gcc/arm-none-eabi/13.2.1/thumb/v7e-m+fp/hard/crtn.o
OUTPUT(_build/build-tk_kb_18010/tk_kb_18010_bootloader-0.9.2.out elf32-littlearm)
LOAD linker stubs

.ARM.attributes
                0x00000000       0x30
 .ARM.attributes
                0x00000000       0x22 /usr/lib/gcc/arm-none-eabi/13.2.1/thumb/v7e-m+fp/hard/crti.o
 .ARM.attributes
                0x00000022       0x34 /usr/lib/gcc/arm-none-eabi/13.2.1/thumb/v7e-m+fp/hard/crtbegin.o
 .ARM.attributes
                0x00000056       0x20 /usr/lib/gcc/arm-none-eabi/13.2.1/../../../arm-none-eabi/lib/thumb/v7e-m+fp/hard/crt0.o
 .ARM.attributes
                0x00000076       0x34 /usr/lib/gcc/arm-none-eabi/13.2.1/../../../arm-none-eabi/lib/thumb/v7e-m+fp/hard/libc.a(libc_a-memset.o)
 .ARM.attributes
                0x000000aa       0x34 /usr/lib/gcc/arm-none-eabi/13.2.1/../../../arm-none-eabi/lib/thumb/v7e-m+fp/hard/libc.a(libc_a-init.o)
 .ARM.attributes
                0x000000de       0x34 /usr/lib/gcc/arm-none-eabi/13.2.1/../../../arm-none-eabi/lib/thumb/v7e-m+fp/hard/libc.a(libc_a-exit.o)
 .ARM.attributes
                0x00000112       0x34 /usr/lib/gcc/arm-none-eabi/13.2.1/../../../arm-none-eabi/lib/thumb/v7e-m+fp/hard/libc.a(libc_a-atexit.o)
 .ARM.attributes
                0x00000146       0x34 /usr/lib/gcc/arm-none-eabi/13.2.1/../../../arm-none-eabi/lib/thumb/v7e-m+fp/hard/libc.a(libc_a-fini.o)
 .ARM.attributes
                0x0000017a       0x34 /usr/lib/gcc/arm-none-eabi/13.2.1/../../../arm-none-eabi/lib/thumb/v7e-m+fp/hard/libc.a(libc_a-__call_atexit.o)
 .ARM.attributes
                0x000001ae       0x34 /usr/lib/gcc/arm-none-eabi/13.2.1/../../../arm-none-eabi/lib/thumb/v7e-m+fp/hard/libc.a(libc_a-__atexit.o)
 .ARM.attributes
                0x000001e2       0x34 /usr/lib/gcc/arm-none-eabi/13.2.1/../../../arm-none-eabi/lib/thumb/v7e-m+fp/hard/libc.a(libc_a-findfp.o)
 .ARM.attributes
                0x00000216       0x34 /usr/lib/gcc/arm-none-eabi/13.2.1/../../../arm-none-eabi/lib/thumb/v7e-m+fp/hard/libnosys.a(_exit.o)
 .ARM.attributes
                0x0000024a       0x34 _build/build-tk_kb_18010/dfu_ble_svc.o
 .ARM.attributes
                0x0000027e       0x34 _build/build-tk_kb_18010/dfu_init.o
 .ARM.attributes
                0x000002b2       0x34 _build/build-tk_kb_18010/flash_nrf5x.o
 .ARM.attributes
                0x000002e6       0x34 _build/build-tk_kb_18010/main.o
 .ARM.attributes
                0x0000031a       0x34 _build/build-tk_kb_18010/boards.o
 .ARM.attributes
                0x0000034e       0x34 _build/build-tk_kb_18010/nrfx_power.o
 .ARM.attributes
                0x00000382       0x34 _build/build-tk_kb_18010/nrfx_nvmc.o
 .ARM.attributes
                0x000003b6       0x34 _build/build-tk_kb_18010/system_nrf52840.o
 .ARM.attributes
                0x000003ea       0x34 _build/build-tk_kb_18010/bootloader.o
 .ARM.attributes
                0x0000041e       0x34 _build/build-tk_kb_18010/bootloader_settings.o
 .ARM.attributes
                0x00000452       0x34 _build/build-tk_kb_18010/bootloader_util.o
 .ARM.attributes
                0x00000486       0x34 _build/build-tk_kb_18010/dfu_transport_serial.o
 .ARM.attributes
                0x000004ba       0x34 _build/build-tk_kb_18010/dfu_transport_ble.o
 .ARM.attributes
                0x000004ee       0x34 _build/build-tk_kb_18010/dfu_single_bank.o
 .ARM.attributes
                0x00000522       0x34 _build/build-tk_kb_18010/ble_dfu.o
 .ARM.attributes
                0x00000556       0x34 _build/build-tk_kb_18010/ble_dis.o
 .ARM.attributes
                0x0000058a       0x34 _build/build-tk_kb_18010/pstorage_raw.o
 .ARM.attributes
                0x000005be       0x34 _build/build-tk_kb_18010/app_timer.o
 .ARM.attributes
                0x000005f2       0x34 _build/build-tk_kb_18010/app_scheduler.o
 .ARM.attributes
                0x00000626       0x34 _build/build-tk_kb_18010/app_error.o
 .ARM.attributes
                0x0000065a       0x34 _build/build-tk_kb_18010/app_util_platform.o
 .ARM.attributes
                0x0000068e       0x34 _build/build-tk_kb_18010/crc16.o
 .ARM.attributes
                0x000006c2       0x34 _build/build-tk_kb_18010/hci_mem_pool.o
 .ARM.attributes
                0x000006f6       0x34 _build/build-tk_kb_18010/hci_slip.o
 .ARM.attributes
                0x0000072a       0x34 _build/build-tk_kb_18010/hci_transport.o
 .ARM.attributes
                0x0000075e       0x34 _build/build-tk_kb_18010/pinconfig.o
 .ARM.attributes
                0x00000792       0x34 _build/build-tk_kb_18010/msc_uf2.o
 .ARM.attributes
                0x000007c6       0x34 _build/build-tk_kb_18010/usb_desc.o
 .ARM.attributes
                0x000007fa       0x34 _build/build-tk_kb_18010/usb.o
 .ARM.attributes
                0x0000082e       0x34 _build/build-tk_kb_18010/ghostfat.o
 .ARM.attributes
                0x00000862       0x34 _build/build-tk_kb_18010/dcd_nrf5x.o
 .ARM.attributes
                0x00000896       0x34 _build/build-tk_kb_18010/tusb_fifo.o
 .ARM.attributes
                0x000008ca       0x34 _build/build-tk_kb_18010/usbd.o
 .ARM.attributes
                0x000008fe       0x34 _build/build-tk_kb_18010/usbd_control.o
 .ARM.attributes
                0x00000932       0x34 _build/build-tk_kb_18010/cdc_device.o
 .ARM.attributes
                0x00000966       0x34 _build/build-tk_kb_18010/msc_device.o
 .ARM.attributes
                0x0000099a       0x34 _build/build-tk_kb_18010/tusb.o
 .ARM.attributes
                0x000009ce       0x20 _build/build-tk_kb_18010/gcc_startup_nrf52840.o
 .ARM.attributes
                0x000009ee       0x34 /usr/lib/gcc/arm-none-eabi/13.2.1/../../../arm-none-eabi/lib/thumb/v7e-m+fp/hard/libc_nano.a(libc_a-strcat.o)
 .ARM.attributes
                0x00000a22       0x34 /usr/lib/gcc/arm-none-eabi/13.2.1/../../../arm-none-eabi/lib/thumb/v7e-m+fp/hard/libc_nano.a(libc_a-strcpy.o)
 .ARM.attributes
                0x00000a56       0x34 /usr/lib/gcc/arm-none-eabi/13.2.1/../../../arm-none-eabi/lib/thumb/v7e-m+fp/hard/libc_nano.a(libc_a-utoa.o)
 .ARM.attributes
                0x00000a8a       0x1c /usr/lib/gcc/arm-none-eabi/13.2.1/../../../arm-none-eabi/lib/thumb/v7e-m+fp/hard/libc_nano.a(libc_a-strlen.o)
 .ARM.attributes
                0x00000aa6       0x34 /usr/lib/gcc/arm-none-eabi/13.2.1/../../../arm-none-eabi/lib/thumb/v7e-m+fp/hard/libc_nano.a(libc_a-memmove.o)
 .ARM.attributes
                0x00000ada       0x20 /usr/lib/gcc/arm-none-eabi/13.2.1/../../../arm-none-eabi/lib/thumb/v7e-m+fp/hard/libc_nano.a(libc_a-memcpy.o)
 .ARM.attributes
                0x00000afa       0x34 /usr/lib/gcc/arm-none-eabi/13.2.1/../../../arm-none-eabi/lib/thumb/v7e-m+fp/hard/libc_nano.a(libc_a-memcmp.o)
 .ARM.attributes
                0x00000b2e       0x22 /usr/lib/gcc/arm-none-eabi/13.2.1/thumb/v7e-m+fp/hard/libgcc.a(_aeabi_uldivmod.o)
 .ARM.attributes
                0x00000b50       0x34 /usr/lib/gcc/arm-none-eabi/13.2.1/thumb/v7e-m+fp/hard/libgcc.a(_udivmoddi4.o)
 .ARM.attributes
                0x00000b84       0x22 /usr/lib/gcc/arm-none-eabi/13.2.1/thumb/v7e-m+fp/hard/libgcc.a(_dvmd_tls.o)
 .ARM.attributes
                0x00000ba6       0x34 /usr/lib/gcc/arm-none-eabi/13.2.1/thumb/v7e-m+fp/hard/crtend.o
 .ARM.attributes
                0x00000bda       0x22 /usr/lib/gcc/arm-none-eabi/13.2.1/thumb/v7e-m+fp/hard/crtn.o

.comment        0x00000000       0x26
 .comment       0x00000000       0x26 /usr/lib/gcc/arm-none-eabi/13.2.1/thumb/v7e-m+fp/hard/crtbegin.o
                                 0x27 (size before relaxing)
 .comment       0x00000026       0x27 /usr/lib/gcc/arm-none-eabi/13.2.1/../../../arm-none-eabi/lib/thumb/v7e-m+fp/hard/libc.a(libc_a-memset.o)
 .comment       0x00000026       0x27 /usr/lib/gcc/arm-none-eabi/13.2.1/../../../arm-none-eabi/lib/thumb/v7e-m+fp/hard/libc.a(libc_a-init.o)
 .comment       0x00000026       0x27 /usr/lib/gcc/arm-none-eabi/13.2.1/../../../arm-none-eabi/lib/thumb/v7e-m+fp/hard/libc.a(libc_a-exit.o)
 .comment       0x00000026       0x27 /usr/lib/gcc/arm-none-eabi/13.2.1/../../../arm-none-eabi/lib/thumb/v7e-m+fp/hard/libc.a(libc_a-atexit.o)
 .comment       0x00000026       0x27 /usr/lib/gcc/arm-none-eabi/13.2.1/../../../arm-none-eabi/lib/thumb/v7e-m+fp/hard/libc.a(libc_a-fini.o)
 .comment       0x00000026       0x27 /usr/lib/gcc/arm-none-eabi/13.2.1/../../../arm-none-eabi/lib/thumb/v7e-m+fp/hard/libc.a(libc_a-__call_atexit.o)
 .comment       0x00000026       0x27 /usr/lib/gcc/arm-none-eabi/13.2.1/../../../arm-none-eabi/lib/thumb/v7e-m+fp/hard/libc.a(libc_a-__atexit.o)
 .comment       0x00000026       0x27 /usr/lib/gcc/arm-none-eabi/13.2.1/../../../arm-none-eabi/lib/thumb/v7e-m+fp/hard/libc.a(libc_a-findfp.o)
 .comment       0x00000026       0x27 /usr/lib/gcc/arm-none-eabi/13.2.1/../../../arm-none-eabi/lib/thumb/v7e-m+fp/hard/libnosys.a(_exit.o)
 .comment       0x00000026       0x27 _build/build-tk_kb_18010/dfu_ble_svc.o
 .comment       0x00000026       0x27 _build/build-tk_kb_18010/dfu_init.o
 .comment       0x00000026       0x27 _build/build-tk_kb_18010/flash_nrf5x.o
 .comment       0x00000026       0x27 _build/build-tk_kb_18010/main.o
 .comment       0x00000026       0x27 _build/build-tk_kb_18010/boards.o
 .comment       0x00000026       0x27 _build/build-tk_kb_18010/nrfx_power.o
 .comment       0x00000026       0x27 _build/build-tk_kb_18010/nrfx_nvmc.o
 .comment       0x00000026       0x27 _build/build-tk_kb_18010/system_nrf52840.o
 .comment       0x00000026       0x27 _build/build-tk_kb_18010/bootloader.o
 .comment       0x00000026       0x27 _build/build-tk_kb_18010/bootloader_settings.o
 .comment       0x00000026       0x27 _build/build-tk_kb_18010/bootloader_util.o
 .comment       0x00000026       0x27 _build/build-tk_kb_18010/dfu_transport_serial.o
 .comment       0x00000026       0x27 _build/build-tk_kb_18010/dfu_transport_ble.o
 .comment       0x00000026       0x27 _build/build-tk_kb_18010/dfu_single_bank.o
 .comment       0x00000026       0x27 _build/build-tk_kb_18010/ble_dfu.o
 .comment       0x00000026       0x27 _build/build-tk_kb_18010/ble_dis.o
 .comment       0x00000026       0x27 _build/build-tk_kb_18010/pstorage_raw.o
 .comment       0x00000026       0x27 _build/build-tk_kb_18010/app_timer.o
 .comment       0x00000026       0x27 _build/build-tk_kb_18010/app_scheduler.o
 .comment       0x00000026       0x27 _build/build-tk_kb_18010/app_error.o
 .comment       0x00000026       0x27 _build/build-tk_kb_18010/app_util_platform.o
 .comment       0x00000026       0x27 _build/build-tk_kb_18010/crc16.o
 .comment       0x00000026       0x27 _build/build-tk_kb_18010/hci_mem_pool.o
 .comment       0x00000026       0x27 _build/build-tk_kb_18010/hci_slip.o
 .comment       0x00000026       0x27 _build/build-tk_kb_18010/hci_transport.o
 .comment       0x00000026       0x27 _build/build-tk_kb_18010/pinconfig.o
 .comment       0x00000026       0x27 _build/build-tk_kb_18010/msc_uf2.o
 .comment       0x00000026       0x27 _build/build-tk_kb_18010/usb_desc.o
 .comment       0x00000026       0x27 _build/build-tk_kb_18010/usb.o
 .comment       0x00000026       0x27 _build/build-tk_kb_18010/ghostfat.o
 .comment       0x00000026       0x27 _build/build-tk_kb_18010/dcd_nrf5x.o
 .comment       0x00000026       0x27 _build/build-tk_kb_18010/tusb_fifo.o
 .comment       0x00000026       0x27 _build/build-tk_kb_18010/usbd.o
 .comment       0x00000026       0x27 _build/build-tk_kb_18010/usbd_control.o
 .comment       0x00000026       0x27 _build/build-tk_kb_18010/cdc_device.o
 .comment       0x00000026       0x27 _build/build-tk_kb_18010/msc_device.o
 .comment       0x00000026       0x27 _build/build-tk_kb_18010/tusb.o
 .comment       0x00000026       0x27 /usr/lib/gcc/arm-none-eabi/13.2.1/../../../arm-none-eabi/lib/thumb/v7e-m+fp/hard/libc_nano.a(libc_a-strcat.o)
 .comment       0x00000026       0x27 /usr/lib/gcc/arm-none-eabi/13.2.1/../../../arm-none-eabi/lib/thumb/v7e-m+fp/hard/libc_nano.a(libc_a-strcpy.o)
 .comment       0x00000026       0x27 /usr/lib/gcc/arm-none-eabi/13.2.1/../../../arm-none-eabi/lib/thumb/v7e-m+fp/hard/libc_nano.a(libc_a-utoa.o)
 .comment       0x00000026       0x27 /usr/lib/gcc/arm-none-eabi/13.2.1/../../../arm-none-eabi/lib/thumb/v7e-m+fp/hard/libc_nano.a(libc_a-memmove.o)
 .comment       0x00000026       0x27 /usr/lib/gcc/arm-none-eabi/13.2.1/../../../arm-none-eabi/lib/thumb/v7e-m+fp/hard/libc_nano.a(libc_a-memcmp.o)
 .comment       0x00000026       0x27 /usr/lib/gcc/arm-none-eabi/13.2.1/thumb/v7e-m+fp/hard/libgcc.a(_udivmoddi4.o)
 .comment       0x00000026       0x27 /usr/lib/gcc/arm-none-eabi/13.2.1/thumb/v7e-m+fp/hard/crtend.o

.debug_line     0x00000000    0x132f7
 .debug_line    0x00000000       0x75 /usr/lib/gcc/arm-none-eabi/13.2.1/../../../arm-none-eabi/lib/thumb/v7e-m+fp/hard/crt0.o
 .debug_line    0x00000075      0x1b6 /usr/lib/gcc/arm-none-eabi/13.2.1/../../../arm-none-eabi/lib/thumb/v7e-m+fp/hard/libc.a(libc_a-memset.o)
 .debug_line    0x0000022b      0x11e /usr/lib/gcc/arm-none-eabi/13.2.1/../../../arm-none-eabi/lib/thumb/v7e-m+fp/hard/libc.a(libc_a-init.o)
 .debug_line    0x00000349      0x139 /usr/lib/gcc/arm-none-eabi/13.2.1/../../../arm-none-eabi/lib/thumb/v7e-m+fp/hard/libc.a(libc_a-exit.o)
 .debug_line    0x00000482       0xc3 /usr/lib/gcc/arm-none-eabi/13.2.1/../../../arm-none-eabi/lib/thumb/v7e-m+fp/hard/libc.a(libc_a-atexit.o)
 .debug_line    0x00000545       0xd2 /usr/lib/gcc/arm-none-eabi/13.2.1/../../../arm-none-eabi/lib/thumb/v7e-m+fp/hard/libc.a(libc_a-fini.o)
 .debug_line    0x00000617      0x27f /usr/lib/gcc/arm-none-eabi/13.2.1/../../../arm-none-eabi/lib/thumb/v7e-m+fp/hard/libc.a(libc_a-__call_atexit.o)
 .debug_line    0x00000896      0x14f /usr/lib/gcc/arm-none-eabi/13.2.1/../../../arm-none-eabi/lib/thumb/v7e-m+fp/hard/libc.a(libc_a-__atexit.o)
 .debug_line    0x000009e5      0x4fc /usr/lib/gcc/arm-none-eabi/13.2.1/../../../arm-none-eabi/lib/thumb/v7e-m+fp/hard/libc.a(libc_a-findfp.o)
 .debug_line    0x00000ee1       0x61 /usr/lib/gcc/arm-none-eabi/13.2.1/../../../arm-none-eabi/lib/thumb/v7e-m+fp/hard/libnosys.a(_exit.o)
 .debug_line    0x00000f42      0x263 _build/build-tk_kb_18010/dfu_ble_svc.o
 .debug_line    0x000011a5      0x1fb _build/build-tk_kb_18010/dfu_init.o
 .debug_line    0x000013a0      0x189 _build/build-tk_kb_18010/flash_nrf5x.o
 .debug_line    0x00001529      0x9f9 _build/build-tk_kb_18010/main.o
 .debug_line    0x00001f22      0x83e _build/build-tk_kb_18010/boards.o
 .debug_line    0x00002760      0x77b _build/build-tk_kb_18010/nrfx_power.o
 .debug_line    0x00002edb      0x923 _build/build-tk_kb_18010/nrfx_nvmc.o
 .debug_line    0x000037fe      0x50c _build/build-tk_kb_18010/system_nrf52840.o
 .debug_line    0x00003d0a      0xc68 _build/build-tk_kb_18010/bootloader.o
 .debug_line    0x00004972      0x12b _build/build-tk_kb_18010/bootloader_settings.o
 .debug_line    0x00004a9d       0xce _build/build-tk_kb_18010/bootloader_util.o
 .debug_line    0x00004b6b      0x583 _build/build-tk_kb_18010/dfu_transport_serial.o
 .debug_line    0x000050ee     0x1129 _build/build-tk_kb_18010/dfu_transport_ble.o
 .debug_line    0x00006217      0xda3 _build/build-tk_kb_18010/dfu_single_bank.o
 .debug_line    0x00006fba      0x9b1 _build/build-tk_kb_18010/ble_dfu.o
 .debug_line    0x0000796b      0x463 _build/build-tk_kb_18010/ble_dis.o
 .debug_line    0x00007dce      0x5b7 _build/build-tk_kb_18010/pstorage_raw.o
 .debug_line    0x00008385      0xe5c _build/build-tk_kb_18010/app_timer.o
 .debug_line    0x000091e1      0x3f9 _build/build-tk_kb_18010/app_scheduler.o
 .debug_line    0x000095da      0x205 _build/build-tk_kb_18010/app_error.o
 .debug_line    0x000097df      0x415 _build/build-tk_kb_18010/app_util_platform.o
 .debug_line    0x00009bf4      0x10d _build/build-tk_kb_18010/crc16.o
 .debug_line    0x00009d01      0x349 _build/build-tk_kb_18010/hci_mem_pool.o
 .debug_line    0x0000a04a      0x5e5 _build/build-tk_kb_18010/hci_slip.o
 .debug_line    0x0000a62f      0xac4 _build/build-tk_kb_18010/hci_transport.o
 .debug_line    0x0000b0f3       0x79 _build/build-tk_kb_18010/pinconfig.o
 .debug_line    0x0000b16c      0x45b _build/build-tk_kb_18010/msc_uf2.o
 .debug_line    0x0000b5c7      0x2bd _build/build-tk_kb_18010/usb_desc.o
 .debug_line    0x0000b884      0x389 _build/build-tk_kb_18010/usb.o
 .debug_line    0x0000bc0d      0x6c4 _build/build-tk_kb_18010/ghostfat.o
 .debug_line    0x0000c2d1     0x192a _build/build-tk_kb_18010/dcd_nrf5x.o
 .debug_line    0x0000dbfb     0x1171 _build/build-tk_kb_18010/tusb_fifo.o
 .debug_line    0x0000ed6c     0x159b _build/build-tk_kb_18010/usbd.o
 .debug_line    0x00010307      0x437 _build/build-tk_kb_18010/usbd_control.o
 .debug_line    0x0001073e      0x9af _build/build-tk_kb_18010/cdc_device.o
 .debug_line    0x000110ed     0x102a _build/build-tk_kb_18010/msc_device.o
 .debug_line    0x00012117      0x394 _build/build-tk_kb_18010/tusb.o
 .debug_line    0x000124ab       0x69 _build/build-tk_kb_18010/gcc_startup_nrf52840.o
 .debug_line    0x00012514       0xf4 /usr/lib/gcc/arm-none-eabi/13.2.1/../../../arm-none-eabi/lib/thumb/v7e-m+fp/hard/libc_nano.a(libc_a-strcat.o)
 .debug_line    0x00012608       0xb9 /usr/lib/gcc/arm-none-eabi/13.2.1/../../../arm-none-eabi/lib/thumb/v7e-m+fp/hard/libc_nano.a(libc_a-strcpy.o)
 .debug_line    0x000126c1      0x180 /usr/lib/gcc/arm-none-eabi/13.2.1/../../../arm-none-eabi/lib/thumb/v7e-m+fp/hard/libc_nano.a(libc_a-utoa.o)
 .debug_line    0x00012841       0x86 /usr/lib/gcc/arm-none-eabi/13.2.1/../../../arm-none-eabi/lib/thumb/v7e-m+fp/hard/libc_nano.a(libc_a-strlen.o)
 .debug_line    0x000128c7      0x1f1 /usr/lib/gcc/arm-none-eabi/13.2.1/../../../arm-none-eabi/lib/thumb/v7e-m+fp/hard/libc_nano.a(libc_a-memmove.o)
 .debug_line    0x00012ab8       0xb9 /usr/lib/gcc/arm-none-eabi/13.2.1/../../../arm-none-eabi/lib/thumb/v7e-m+fp/hard/libc_nano.a(libc_a-memcpy.o)
 .debug_line    0x00012b71      0x17a /usr/lib/gcc/arm-none-eabi/13.2.1/../../../arm-none-eabi/lib/thumb/v7e-m+fp/hard/libc_nano.a(libc_a-memcmp.o)
 .debug_line    0x00012ceb       0x4e /usr/lib/gcc/arm-none-eabi/13.2.1/thumb/v7e-m+fp/hard/libgcc.a(_aeabi_uldivmod.o)
 .debug_line    0x00012d39      0x574 /usr/lib/gcc/arm-none-eabi/13.2.1/thumb/v7e-m+fp/hard/libgcc.a(_udivmoddi4.o)
 .debug_line    0x000132ad       0x4a /usr/lib/gcc/arm-none-eabi/13.2.1/thumb/v7e-m+fp/hard/libgcc.a(_dvmd_tls.o)

.debug_line_str
                0x00000000      0x218
 .debug_line_str
                0x00000000      0x218 /usr/lib/gcc/arm-none-eabi/13.2.1/../../../arm-none-eabi/lib/thumb/v7e-m+fp/hard/crt0.o
                                 0x82 (size before relaxing)
 .debug_line_str
                0x00000218       0x4b _build/build-tk_kb_18010/gcc_startup_nrf52840.o
 .debug_line_str
                0x00000218       0x98 /usr/lib/gcc/arm-none-eabi/13.2.1/../../../arm-none-eabi/lib/thumb/v7e-m+fp/hard/libc_nano.a(libc_a-strlen.o)
 .debug_line_str
                0x00000218       0x99 /usr/lib/gcc/arm-none-eabi/13.2.1/../../../arm-none-eabi/lib/thumb/v7e-m+fp/hard/libc_nano.a(libc_a-memcpy.o)
 .debug_line_str
                0x00000218       0x97 /usr/lib/gcc/arm-none-eabi/13.2.1/thumb/v7e-m+fp/hard/libgcc.a(_aeabi_uldivmod.o)
 .debug_line_str
                0x00000218       0x9b /usr/lib/gcc/arm-none-eabi/13.2.1/thumb/v7e-m+fp/hard/libgcc.a(_dvmd_tls.o)

.debug_info     0x00000000    0x2fa97
 .debug_info    0x00000000       0x24 /usr/lib/gcc/arm-none-eabi/13.2.1/../../../arm-none-eabi/lib/thumb/v7e-m+fp/hard/crt0.o
 .debug_info    0x00000024      0x135 /usr/lib/gcc/arm-none-eabi/13.2.1/../../../arm-none-eabi/lib/thumb/v7e-m+fp/hard/libc.a(libc_a-memset.o)
 .debug_info    0x00000159      0x10b /usr/lib/gcc/arm-none-eabi/13.2.1/../../../arm-none-eabi/lib/thumb/v7e-m+fp/hard/libc.a(libc_a-init.o)
 .debug_info    0x00000264      0x10a /usr/lib/gcc/arm-none-eabi/13.2.1/../../../arm-none-eabi/lib/thumb/v7e-m+fp/hard/libc.a(libc_a-exit.o)
 .debug_info    0x0000036e      0x11e /usr/lib/gcc/arm-none-eabi/13.2.1/../../../arm-none-eabi/lib/thumb/v7e-m+fp/hard/libc.a(libc_a-atexit.o)
 .debug_info    0x0000048c       0xf7 /usr/lib/gcc/arm-none-eabi/13.2.1/../../../arm-none-eabi/lib/thumb/v7e-m+fp/hard/libc.a(libc_a-fini.o)
 .debug_info    0x00000583      0x284 /usr/lib/gcc/arm-none-eabi/13.2.1/../../../arm-none-eabi/lib/thumb/v7e-m+fp/hard/libc.a(libc_a-__call_atexit.o)
 .debug_info    0x00000807      0x1fd /usr/lib/gcc/arm-none-eabi/13.2.1/../../../arm-none-eabi/lib/thumb/v7e-m+fp/hard/libc.a(libc_a-__atexit.o)
 .debug_info    0x00000a04      0xea8 /usr/lib/gcc/arm-none-eabi/13.2.1/../../../arm-none-eabi/lib/thumb/v7e-m+fp/hard/libc.a(libc_a-findfp.o)
 .debug_info    0x000018ac       0xa4 /usr/lib/gcc/arm-none-eabi/13.2.1/../../../arm-none-eabi/lib/thumb/v7e-m+fp/hard/libnosys.a(_exit.o)
 .debug_info    0x00001950      0x4bb _build/build-tk_kb_18010/dfu_ble_svc.o
 .debug_info    0x00001e0b      0x2da _build/build-tk_kb_18010/dfu_init.o
 .debug_info    0x000020e5      0x363 _build/build-tk_kb_18010/flash_nrf5x.o
 .debug_info    0x00002448     0x3a31 _build/build-tk_kb_18010/main.o
 .debug_info    0x00005e79     0x1c0c _build/build-tk_kb_18010/boards.o
 .debug_info    0x00007a85     0x1b68 _build/build-tk_kb_18010/nrfx_power.o
 .debug_info    0x000095ed     0x1617 _build/build-tk_kb_18010/nrfx_nvmc.o
 .debug_info    0x0000ac04     0x1513 _build/build-tk_kb_18010/system_nrf52840.o
 .debug_info    0x0000c117     0x168e _build/build-tk_kb_18010/bootloader.o
 .debug_info    0x0000d7a5      0x20c _build/build-tk_kb_18010/bootloader_settings.o
 .debug_info    0x0000d9b1       0xee _build/build-tk_kb_18010/bootloader_util.o
 .debug_info    0x0000da9f      0x9dc _build/build-tk_kb_18010/dfu_transport_serial.o
 .debug_info    0x0000e47b     0x4a48 _build/build-tk_kb_18010/dfu_transport_ble.o
 .debug_info    0x00012ec3     0x1763 _build/build-tk_kb_18010/dfu_single_bank.o
 .debug_info    0x00014626     0x2e1d _build/build-tk_kb_18010/ble_dfu.o
 .debug_info    0x00017443      0xb81 _build/build-tk_kb_18010/ble_dis.o
 .debug_info    0x00017fc4      0xf04 _build/build-tk_kb_18010/pstorage_raw.o
 .debug_info    0x00018ec8     0x1cfb _build/build-tk_kb_18010/app_timer.o
 .debug_info    0x0001abc3      0x4f9 _build/build-tk_kb_18010/app_scheduler.o
 .debug_info    0x0001b0bc      0x32d _build/build-tk_kb_18010/app_error.o
 .debug_info    0x0001b3e9      0x9a2 _build/build-tk_kb_18010/app_util_platform.o
 .debug_info    0x0001bd8b      0x12b _build/build-tk_kb_18010/crc16.o
 .debug_info    0x0001beb6      0x373 _build/build-tk_kb_18010/hci_mem_pool.o
 .debug_info    0x0001c229      0x892 _build/build-tk_kb_18010/hci_slip.o
 .debug_info    0x0001cabb     0x1404 _build/build-tk_kb_18010/hci_transport.o
 .debug_info    0x0001debf       0xab _build/build-tk_kb_18010/pinconfig.o
 .debug_info    0x0001df6a      0xb91 _build/build-tk_kb_18010/msc_uf2.o
 .debug_info    0x0001eafb      0xbbd _build/build-tk_kb_18010/usb_desc.o
 .debug_info    0x0001f6b8      0xf8d _build/build-tk_kb_18010/usb.o
 .debug_info    0x00020645      0xd99 _build/build-tk_kb_18010/ghostfat.o
 .debug_info    0x000213de     0x31c0 _build/build-tk_kb_18010/dcd_nrf5x.o
 .debug_info    0x0002459e     0x1fcc _build/build-tk_kb_18010/tusb_fifo.o
 .debug_info    0x0002656a     0x32ed _build/build-tk_kb_18010/usbd.o
 .debug_info    0x00029857      0x877 _build/build-tk_kb_18010/usbd_control.o
 .debug_info    0x0002a0ce     0x1940 _build/build-tk_kb_18010/cdc_device.o
 .debug_info    0x0002ba0e     0x27d3 _build/build-tk_kb_18010/msc_device.o
 .debug_info    0x0002e1e1      0x7f6 _build/build-tk_kb_18010/tusb.o
 .debug_info    0x0002e9d7      0x2e4 _build/build-tk_kb_18010/gcc_startup_nrf52840.o
 .debug_info    0x0002ecbb      0x130 /usr/lib/gcc/arm-none-eabi/13.2.1/../../../arm-none-eabi/lib/thumb/v7e-m+fp/hard/libc_nano.a(libc_a-strcat.o)
 .debug_info    0x0002edeb       0xc3 /usr/lib/gcc/arm-none-eabi/13.2.1/../../../arm-none-eabi/lib/thumb/v7e-m+fp/hard/libc_nano.a(libc_a-strcpy.o)
 .debug_info    0x0002eeae      0x1bb /usr/lib/gcc/arm-none-eabi/13.2.1/../../../arm-none-eabi/lib/thumb/v7e-m+fp/hard/libc_nano.a(libc_a-utoa.o)
 .debug_info    0x0002f069       0x33 /usr/lib/gcc/arm-none-eabi/13.2.1/../../../arm-none-eabi/lib/thumb/v7e-m+fp/hard/libc_nano.a(libc_a-strlen.o)
 .debug_info    0x0002f09c      0x148 /usr/lib/gcc/arm-none-eabi/13.2.1/../../../arm-none-eabi/lib/thumb/v7e-m+fp/hard/libc_nano.a(libc_a-memmove.o)
 .debug_info    0x0002f1e4       0x33 /usr/lib/gcc/arm-none-eabi/13.2.1/../../../arm-none-eabi/lib/thumb/v7e-m+fp/hard/libc_nano.a(libc_a-memcpy.o)
 .debug_info    0x0002f217      0x12b /usr/lib/gcc/arm-none-eabi/13.2.1/../../../arm-none-eabi/lib/thumb/v7e-m+fp/hard/libc_nano.a(libc_a-memcmp.o)
 .debug_info    0x0002f342       0x24 /usr/lib/gcc/arm-none-eabi/13.2.1/thumb/v7e-m+fp/hard/libgcc.a(_aeabi_uldivmod.o)
 .debug_info    0x0002f366      0x6f5 /usr/lib/gcc/arm-none-eabi/13.2.1/thumb/v7e-m+fp/hard/libgcc.a(_udivmoddi4.o)
 .debug_info    0x0002fa5b       0x3c /usr/lib/gcc/arm-none-eabi/13.2.1/thumb/v7e-m+fp/hard/libgcc.a(_dvmd_tls.o)

.debug_abbrev   0x00000000     0x911e
 .debug_abbrev  0x00000000       0x14 /usr/lib/gcc/arm-none-eabi/13.2.1/../../../arm-none-eabi/lib/thumb/v7e-m+fp/hard/crt0.o
 .debug_abbrev  0x00000014       0xb7 /usr/lib/gcc/arm-none-eabi/13.2.1/../../../arm-none-eabi/lib/thumb/v7e-m+fp/hard/libc.a(libc_a-memset.o)
 .debug_abbrev  0x000000cb       0xc9 /usr/lib/gcc/arm-none-eabi/13.2.1/../../../arm-none-eabi/lib/thumb/v7e-m+fp/hard/libc.a(libc_a-init.o)
 .debug_abbrev  0x00000194       0xd5 /usr/lib/gcc/arm-none-eabi/13.2.1/../../../arm-none-eabi/lib/thumb/v7e-m+fp/hard/libc.a(libc_a-exit.o)
 .debug_abbrev  0x00000269       0xc1 /usr/lib/gcc/arm-none-eabi/13.2.1/../../../arm-none-eabi/lib/thumb/v7e-m+fp/hard/libc.a(libc_a-atexit.o)
 .debug_abbrev  0x0000032a       0xcc /usr/lib/gcc/arm-none-eabi/13.2.1/../../../arm-none-eabi/lib/thumb/v7e-m+fp/hard/libc.a(libc_a-fini.o)
 .debug_abbrev  0x000003f6      0x1dd /usr/lib/gcc/arm-none-eabi/13.2.1/../../../arm-none-eabi/lib/thumb/v7e-m+fp/hard/libc.a(libc_a-__call_atexit.o)
 .debug_abbrev  0x000005d3      0x157 /usr/lib/gcc/arm-none-eabi/13.2.1/../../../arm-none-eabi/lib/thumb/v7e-m+fp/hard/libc.a(libc_a-__atexit.o)
 .debug_abbrev  0x0000072a      0x446 /usr/lib/gcc/arm-none-eabi/13.2.1/../../../arm-none-eabi/lib/thumb/v7e-m+fp/hard/libc.a(libc_a-findfp.o)
 .debug_abbrev  0x00000b70       0x69 /usr/lib/gcc/arm-none-eabi/13.2.1/../../../arm-none-eabi/lib/thumb/v7e-m+fp/hard/libnosys.a(_exit.o)
 .debug_abbrev  0x00000bd9      0x278 _build/build-tk_kb_18010/dfu_ble_svc.o
 .debug_abbrev  0x00000e51      0x160 _build/build-tk_kb_18010/dfu_init.o
 .debug_abbrev  0x00000fb1      0x180 _build/build-tk_kb_18010/flash_nrf5x.o
 .debug_abbrev  0x00001131      0x606 _build/build-tk_kb_18010/main.o
 .debug_abbrev  0x00001737      0x4d0 _build/build-tk_kb_18010/boards.o
 .debug_abbrev  0x00001c07      0x449 _build/build-tk_kb_18010/nrfx_power.o
 .debug_abbrev  0x00002050      0x4c7 _build/build-tk_kb_18010/nrfx_nvmc.o
 .debug_abbrev  0x00002517      0x2ab _build/build-tk_kb_18010/system_nrf52840.o
 .debug_abbrev  0x000027c2      0x568 _build/build-tk_kb_18010/bootloader.o
 .debug_abbrev  0x00002d2a      0x114 _build/build-tk_kb_18010/bootloader_settings.o
 .debug_abbrev  0x00002e3e       0x95 _build/build-tk_kb_18010/bootloader_util.o
 .debug_abbrev  0x00002ed3      0x32b _build/build-tk_kb_18010/dfu_transport_serial.o
 .debug_abbrev  0x000031fe      0x57a _build/build-tk_kb_18010/dfu_transport_ble.o
 .debug_abbrev  0x00003778      0x51f _build/build-tk_kb_18010/dfu_single_bank.o
 .debug_abbrev  0x00003c97      0x426 _build/build-tk_kb_18010/ble_dfu.o
 .debug_abbrev  0x000040bd      0x31e _build/build-tk_kb_18010/ble_dis.o
 .debug_abbrev  0x000043db      0x39d _build/build-tk_kb_18010/pstorage_raw.o
 .debug_abbrev  0x00004778      0x543 _build/build-tk_kb_18010/app_timer.o
 .debug_abbrev  0x00004cbb      0x2c2 _build/build-tk_kb_18010/app_scheduler.o
 .debug_abbrev  0x00004f7d      0x145 _build/build-tk_kb_18010/app_error.o
 .debug_abbrev  0x000050c2      0x330 _build/build-tk_kb_18010/app_util_platform.o
 .debug_abbrev  0x000053f2       0x9a _build/build-tk_kb_18010/crc16.o
 .debug_abbrev  0x0000548c      0x159 _build/build-tk_kb_18010/hci_mem_pool.o
 .debug_abbrev  0x000055e5      0x43e _build/build-tk_kb_18010/hci_slip.o
 .debug_abbrev  0x00005a23      0x438 _build/build-tk_kb_18010/hci_transport.o
 .debug_abbrev  0x00005e5b       0x61 _build/build-tk_kb_18010/pinconfig.o
 .debug_abbrev  0x00005ebc      0x299 _build/build-tk_kb_18010/msc_uf2.o
 .debug_abbrev  0x00006155      0x256 _build/build-tk_kb_18010/usb_desc.o
 .debug_abbrev  0x000063ab      0x31b _build/build-tk_kb_18010/usb.o
 .debug_abbrev  0x000066c6      0x37c _build/build-tk_kb_18010/ghostfat.o
 .debug_abbrev  0x00006a42      0x649 _build/build-tk_kb_18010/dcd_nrf5x.o
 .debug_abbrev  0x0000708b      0x480 _build/build-tk_kb_18010/tusb_fifo.o
 .debug_abbrev  0x0000750b      0x637 _build/build-tk_kb_18010/usbd.o
 .debug_abbrev  0x00007b42      0x35a _build/build-tk_kb_18010/usbd_control.o
 .debug_abbrev  0x00007e9c      0x4e7 _build/build-tk_kb_18010/cdc_device.o
 .debug_abbrev  0x00008383      0x551 _build/build-tk_kb_18010/msc_device.o
 .debug_abbrev  0x000088d4      0x2af _build/build-tk_kb_18010/tusb.o
 .debug_abbrev  0x00008b83       0x28 _build/build-tk_kb_18010/gcc_startup_nrf52840.o
 .debug_abbrev  0x00008bab       0xce /usr/lib/gcc/arm-none-eabi/13.2.1/../../../arm-none-eabi/lib/thumb/v7e-m+fp/hard/libc_nano.a(libc_a-strcat.o)
 .debug_abbrev  0x00008c79       0x7b /usr/lib/gcc/arm-none-eabi/13.2.1/../../../arm-none-eabi/lib/thumb/v7e-m+fp/hard/libc_nano.a(libc_a-strcpy.o)
 .debug_abbrev  0x00008cf4       0xe3 /usr/lib/gcc/arm-none-eabi/13.2.1/../../../arm-none-eabi/lib/thumb/v7e-m+fp/hard/libc_nano.a(libc_a-utoa.o)
 .debug_abbrev  0x00008dd7       0x28 /usr/lib/gcc/arm-none-eabi/13.2.1/../../../arm-none-eabi/lib/thumb/v7e-m+fp/hard/libc_nano.a(libc_a-strlen.o)
 .debug_abbrev  0x00008dff       0xc3 /usr/lib/gcc/arm-none-eabi/13.2.1/../../../arm-none-eabi/lib/thumb/v7e-m+fp/hard/libc_nano.a(libc_a-memmove.o)
 .debug_abbrev  0x00008ec2       0x28 /usr/lib/gcc/arm-none-eabi/13.2.1/../../../arm-none-eabi/lib/thumb/v7e-m+fp/hard/libc_nano.a(libc_a-memcpy.o)
 .debug_abbrev  0x00008eea       0x90 /usr/lib/gcc/arm-none-eabi/13.2.1/../../../arm-none-eabi/lib/thumb/v7e-m+fp/hard/libc_nano.a(libc_a-memcmp.o)
 .debug_abbrev  0x00008f7a       0x14 /usr/lib/gcc/arm-none-eabi/13.2.1/thumb/v7e-m+fp/hard/libgcc.a(_aeabi_uldivmod.o)
 .debug_abbrev  0x00008f8e      0x16a /usr/lib/gcc/arm-none-eabi/13.2.1/thumb/v7e-m+fp/hard/libgcc.a(_udivmoddi4.o)
 .debug_abbrev  0x000090f8       0x26 /usr/lib/gcc/arm-none-eabi/13.2.1/thumb/v7e-m+fp/hard/libgcc.a(_dvmd_tls.o)

.debug_aranges  0x00000000     0x12d0
 .debug_aranges
                0x00000000       0x20 /usr/lib/gcc/arm-none-eabi/13.2.1/../../../arm-none-eabi/lib/thumb/v7e-m+fp/hard/crt0.o
 .debug_aranges
                0x00000020       0x20 /usr/lib/gcc/arm-none-eabi/13.2.1/../../../arm-none-eabi/lib/thumb/v7e-m+fp/hard/libc.a(libc_a-memset.o)
 .debug_aranges
                0x00000040       0x20 /usr/lib/gcc/arm-none-eabi/13.2.1/../../../arm-none-eabi/lib/thumb/v7e-m+fp/hard/libc.a(libc_a-init.o)
 .debug_aranges
                0x00000060       0x20 /usr/lib/gcc/arm-none-eabi/13.2.1/../../../arm-none-eabi/lib/thumb/v7e-m+fp/hard/libc.a(libc_a-exit.o)
 .debug_aranges
                0x00000080       0x20 /usr/lib/gcc/arm-none-eabi/13.2.1/../../../arm-none-eabi/lib/thumb/v7e-m+fp/hard/libc.a(libc_a-atexit.o)
 .debug_aranges
                0x000000a0       0x20 /usr/lib/gcc/arm-none-eabi/13.2.1/../../../arm-none-eabi/lib/thumb/v7e-m+fp/hard/libc.a(libc_a-fini.o)
 .debug_aranges
                0x000000c0       0x28 /usr/lib/gcc/arm-none-eabi/13.2.1/../../../arm-none-eabi/lib/thumb/v7e-m+fp/hard/libc.a(libc_a-__call_atexit.o)
 .debug_aranges
                0x000000e8       0x20 /usr/lib/gcc/arm-none-eabi/13.2.1/../../../arm-none-eabi/lib/thumb/v7e-m+fp/hard/libc.a(libc_a-__atexit.o)
 .debug_aranges
                0x00000108       0x20 /usr/lib/gcc/arm-none-eabi/13.2.1/../../../arm-none-eabi/lib/thumb/v7e-m+fp/hard/libc.a(libc_a-findfp.o)
 .debug_aranges
                0x00000128       0x20 /usr/lib/gcc/arm-none-eabi/13.2.1/../../../arm-none-eabi/lib/thumb/v7e-m+fp/hard/libnosys.a(_exit.o)
 .debug_aranges
                0x00000148       0x30 _build/build-tk_kb_18010/dfu_ble_svc.o
 .debug_aranges
                0x00000178       0x28 _build/build-tk_kb_18010/dfu_init.o
 .debug_aranges
                0x000001a0       0x28 _build/build-tk_kb_18010/flash_nrf5x.o
 .debug_aranges
                0x000001c8       0xa8 _build/build-tk_kb_18010/main.o
 .debug_aranges
                0x00000270       0x80 _build/build-tk_kb_18010/boards.o
 .debug_aranges
                0x000002f0       0xa8 _build/build-tk_kb_18010/nrfx_power.o
 .debug_aranges
                0x00000398       0x98 _build/build-tk_kb_18010/nrfx_nvmc.o
 .debug_aranges
                0x00000430       0x38 _build/build-tk_kb_18010/system_nrf52840.o
 .debug_aranges
                0x00000468       0x90 _build/build-tk_kb_18010/bootloader.o
 .debug_aranges
                0x000004f8       0x28 _build/build-tk_kb_18010/bootloader_settings.o
 .debug_aranges
                0x00000520       0x28 _build/build-tk_kb_18010/bootloader_util.o
 .debug_aranges
                0x00000548       0x48 _build/build-tk_kb_18010/dfu_transport_serial.o
 .debug_aranges
                0x00000590      0x120 _build/build-tk_kb_18010/dfu_transport_ble.o
 .debug_aranges
                0x000006b0       0xc8 _build/build-tk_kb_18010/dfu_single_bank.o
 .debug_aranges
                0x00000778       0x70 _build/build-tk_kb_18010/ble_dfu.o
 .debug_aranges
                0x000007e8       0x38 _build/build-tk_kb_18010/ble_dis.o
 .debug_aranges
                0x00000820       0x78 _build/build-tk_kb_18010/pstorage_raw.o
 .debug_aranges
                0x00000898       0x98 _build/build-tk_kb_18010/app_timer.o
 .debug_aranges
                0x00000930       0x38 _build/build-tk_kb_18010/app_scheduler.o
 .debug_aranges
                0x00000968       0x30 _build/build-tk_kb_18010/app_error.o
 .debug_aranges
                0x00000998       0x48 _build/build-tk_kb_18010/app_util_platform.o
 .debug_aranges
                0x000009e0       0x20 _build/build-tk_kb_18010/crc16.o
 .debug_aranges
                0x00000a00       0x58 _build/build-tk_kb_18010/hci_mem_pool.o
 .debug_aranges
                0x00000a58       0x90 _build/build-tk_kb_18010/hci_slip.o
 .debug_aranges
                0x00000ae8       0x80 _build/build-tk_kb_18010/hci_transport.o
 .debug_aranges
                0x00000b68       0x18 _build/build-tk_kb_18010/pinconfig.o
 .debug_aranges
                0x00000b80       0x60 _build/build-tk_kb_18010/msc_uf2.o
 .debug_aranges
                0x00000be0       0x38 _build/build-tk_kb_18010/usb_desc.o
 .debug_aranges
                0x00000c18       0x70 _build/build-tk_kb_18010/usb.o
 .debug_aranges
                0x00000c88       0x38 _build/build-tk_kb_18010/ghostfat.o
 .debug_aranges
                0x00000cc0       0xf8 _build/build-tk_kb_18010/dcd_nrf5x.o
 .debug_aranges
                0x00000db8       0xf8 _build/build-tk_kb_18010/tusb_fifo.o
 .debug_aranges
                0x00000eb0      0x118 _build/build-tk_kb_18010/usbd.o
 .debug_aranges
                0x00000fc8       0x58 _build/build-tk_kb_18010/usbd_control.o
 .debug_aranges
                0x00001020       0xa8 _build/build-tk_kb_18010/cdc_device.o
 .debug_aranges
                0x000010c8       0x68 _build/build-tk_kb_18010/msc_device.o
 .debug_aranges
                0x00001130       0x40 _build/build-tk_kb_18010/tusb.o
 .debug_aranges
                0x00001170       0x20 _build/build-tk_kb_18010/gcc_startup_nrf52840.o
 .debug_aranges
                0x00001190       0x20 /usr/lib/gcc/arm-none-eabi/13.2.1/../../../arm-none-eabi/lib/thumb/v7e-m+fp/hard/libc_nano.a(libc_a-strcat.o)
 .debug_aranges
                0x000011b0       0x20 /usr/lib/gcc/arm-none-eabi/13.2.1/../../../arm-none-eabi/lib/thumb/v7e-m+fp/hard/libc_nano.a(libc_a-strcpy.o)
 .debug_aranges
                0x000011d0       0x20 /usr/lib/gcc/arm-none-eabi/13.2.1/../../../arm-none-eabi/lib/thumb/v7e-m+fp/hard/libc_nano.a(libc_a-utoa.o)
 .debug_aranges
                0x000011f0       0x20 /usr/lib/gcc/arm-none-eabi/13.2.1/../../../arm-none-eabi/lib/thumb/v7e-m+fp/hard/libc_nano.a(libc_a-strlen.o)
 .debug_aranges
                0x00001210       0x20 /usr/lib/gcc/arm-none-eabi/13.2.1/../../../arm-none-eabi/lib/thumb/v7e-m+fp/hard/libc_nano.a(libc_a-memmove.o)
 .debug_aranges
                0x00001230       0x20 /usr/lib/gcc/arm-none-eabi/13.2.1/../../../arm-none-eabi/lib/thumb/v7e-m+fp/hard/libc_nano.a(libc_a-memcpy.o)
 .debug_aranges
                0x00001250       0x20 /usr/lib/gcc/arm-none-eabi/13.2.1/../../../arm-none-eabi/lib/thumb/v7e-m+fp/hard/libc_nano.a(libc_a-memcmp.o)
 .debug_aranges
                0x00001270       0x20 /usr/lib/gcc/arm-none-eabi/13.2.1/thumb/v7e-m+fp/hard/libgcc.a(_aeabi_uldivmod.o)
 .debug_aranges
                0x00001290       0x20 /usr/lib/gcc/arm-none-eabi/13.2.1/thumb/v7e-m+fp/hard/libgcc.a(_udivmoddi4.o)
 .debug_aranges
                0x000012b0       0x20 /usr/lib/gcc/arm-none-eabi/13.2.1/thumb/v7e-m+fp/hard/libgcc.a(_dvmd_tls.o)

.debug_str      0x00000000     0xe513
 .debug_str     0x00000000     0xe513 /usr/lib/gcc/arm-none-eabi/13.2.1/../../../arm-none-eabi/lib/thumb/v7e-m+fp/hard/crt0.o
                                 0x8e (size before relaxing)
 .debug_str     0x0000e513      0x1a8 /usr/lib/gcc/arm-none-eabi/13.2.1/../../../arm-none-eabi/lib/thumb/v7e-m+fp/hard/libc.a(libc_a-memset.o)
 .debug_str     0x0000e513      0x1f5 /usr/lib/gcc/arm-none-eabi/13.2.1/../../../arm-none-eabi/lib/thumb/v7e-m+fp/hard/libc.a(libc_a-init.o)
 .debug_str     0x0000e513      0x1ba /usr/lib/gcc/arm-none-eabi/13.2.1/../../../arm-none-eabi/lib/thumb/v7e-m+fp/hard/libc.a(libc_a-exit.o)
 .debug_str     0x0000e513      0x1d1 /usr/lib/gcc/arm-none-eabi/13.2.1/../../../arm-none-eabi/lib/thumb/v7e-m+fp/hard/libc.a(libc_a-atexit.o)
 .debug_str     0x0000e513      0x1cb /usr/lib/gcc/arm-none-eabi/13.2.1/../../../arm-none-eabi/lib/thumb/v7e-m+fp/hard/libc.a(libc_a-fini.o)
 .debug_str     0x0000e513      0x25e /usr/lib/gcc/arm-none-eabi/13.2.1/../../../arm-none-eabi/lib/thumb/v7e-m+fp/hard/libc.a(libc_a-__call_atexit.o)
 .debug_str     0x0000e513      0x23c /usr/lib/gcc/arm-none-eabi/13.2.1/../../../arm-none-eabi/lib/thumb/v7e-m+fp/hard/libc.a(libc_a-__atexit.o)
 .debug_str     0x0000e513      0x6af /usr/lib/gcc/arm-none-eabi/13.2.1/../../../arm-none-eabi/lib/thumb/v7e-m+fp/hard/libc.a(libc_a-findfp.o)
 .debug_str     0x0000e513      0x169 /usr/lib/gcc/arm-none-eabi/13.2.1/../../../arm-none-eabi/lib/thumb/v7e-m+fp/hard/libnosys.a(_exit.o)
 .debug_str     0x0000e513      0x39e _build/build-tk_kb_18010/dfu_ble_svc.o
 .debug_str     0x0000e513      0x324 _build/build-tk_kb_18010/dfu_init.o
 .debug_str     0x0000e513      0x3ed _build/build-tk_kb_18010/flash_nrf5x.o
 .debug_str     0x0000e513     0x3379 _build/build-tk_kb_18010/main.o
 .debug_str     0x0000e513     0x10d1 _build/build-tk_kb_18010/boards.o
 .debug_str     0x0000e513     0x17bf _build/build-tk_kb_18010/nrfx_power.o
 .debug_str     0x0000e513      0xa25 _build/build-tk_kb_18010/nrfx_nvmc.o
 .debug_str     0x0000e513      0x8dc _build/build-tk_kb_18010/system_nrf52840.o
 .debug_str     0x0000e513     0x1073 _build/build-tk_kb_18010/bootloader.o
 .debug_str     0x0000e513      0x36d _build/build-tk_kb_18010/bootloader_settings.o
 .debug_str     0x0000e513      0x245 _build/build-tk_kb_18010/bootloader_util.o
 .debug_str     0x0000e513      0x76d _build/build-tk_kb_18010/dfu_transport_serial.o
 .debug_str     0x0000e513     0x32bc _build/build-tk_kb_18010/dfu_transport_ble.o
 .debug_str     0x0000e513      0xe22 _build/build-tk_kb_18010/dfu_single_bank.o
 .debug_str     0x0000e513     0x2322 _build/build-tk_kb_18010/ble_dfu.o
 .debug_str     0x0000e513      0x940 _build/build-tk_kb_18010/ble_dis.o
 .debug_str     0x0000e513      0xc9a _build/build-tk_kb_18010/pstorage_raw.o
 .debug_str     0x0000e513      0xecd _build/build-tk_kb_18010/app_timer.o
 .debug_str     0x0000e513      0x44f _build/build-tk_kb_18010/app_scheduler.o
 .debug_str     0x0000e513      0x318 _build/build-tk_kb_18010/app_error.o
 .debug_str     0x0000e513      0x877 _build/build-tk_kb_18010/app_util_platform.o
 .debug_str     0x0000e513      0x226 _build/build-tk_kb_18010/crc16.o
 .debug_str     0x0000e513      0x3da _build/build-tk_kb_18010/hci_mem_pool.o
 .debug_str     0x0000e513      0x5c0 _build/build-tk_kb_18010/hci_slip.o
 .debug_str     0x0000e513      0xb4c _build/build-tk_kb_18010/hci_transport.o
 .debug_str     0x0000e513      0x1fe _build/build-tk_kb_18010/pinconfig.o
 .debug_str     0x0000e513      0xa8e _build/build-tk_kb_18010/msc_uf2.o
 .debug_str     0x0000e513     0x1189 _build/build-tk_kb_18010/usb_desc.o
 .debug_str     0x0000e513     0x113d _build/build-tk_kb_18010/usb.o
 .debug_str     0x0000e513      0x5f0 _build/build-tk_kb_18010/ghostfat.o
 .debug_str     0x0000e513     0x1f97 _build/build-tk_kb_18010/dcd_nrf5x.o
 .debug_str     0x0000e513      0x6cd _build/build-tk_kb_18010/tusb_fifo.o
 .debug_str     0x0000e513     0x1571 _build/build-tk_kb_18010/usbd.o
 .debug_str     0x0000e513      0x512 _build/build-tk_kb_18010/usbd_control.o
 .debug_str     0x0000e513     0x143f _build/build-tk_kb_18010/cdc_device.o
 .debug_str     0x0000e513     0x1460 _build/build-tk_kb_18010/msc_device.o
 .debug_str     0x0000e513      0x72e _build/build-tk_kb_18010/tusb.o
 .debug_str     0x0000e513      0x449 _build/build-tk_kb_18010/gcc_startup_nrf52840.o
 .debug_str     0x0000e513      0x1a4 /usr/lib/gcc/arm-none-eabi/13.2.1/../../../arm-none-eabi/lib/thumb/v7e-m+fp/hard/libc_nano.a(libc_a-strcat.o)
 .debug_str     0x0000e513      0x197 /usr/lib/gcc/arm-none-eabi/13.2.1/../../../arm-none-eabi/lib/thumb/v7e-m+fp/hard/libc_nano.a(libc_a-strcpy.o)
 .debug_str     0x0000e513      0x1b1 /usr/lib/gcc/arm-none-eabi/13.2.1/../../../arm-none-eabi/lib/thumb/v7e-m+fp/hard/libc_nano.a(libc_a-utoa.o)
 .debug_str     0x0000e513       0xab /usr/lib/gcc/arm-none-eabi/13.2.1/../../../arm-none-eabi/lib/thumb/v7e-m+fp/hard/libc_nano.a(libc_a-strlen.o)
 .debug_str     0x0000e513      0x1cc /usr/lib/gcc/arm-none-eabi/13.2.1/../../../arm-none-eabi/lib/thumb/v7e-m+fp/hard/libc_nano.a(libc_a-memmove.o)
 .debug_str     0x0000e513       0xac /usr/lib/gcc/arm-none-eabi/13.2.1/../../../arm-none-eabi/lib/thumb/v7e-m+fp/hard/libc_nano.a(libc_a-memcpy.o)
 .debug_str     0x0000e513      0x199 /usr/lib/gcc/arm-none-eabi/13.2.1/../../../arm-none-eabi/lib/thumb/v7e-m+fp/hard/libc_nano.a(libc_a-memcmp.o)
 .debug_str     0x0000e513       0xa3 /usr/lib/gcc/arm-none-eabi/13.2.1/thumb/v7e-m+fp/hard/libgcc.a(_aeabi_uldivmod.o)
 .debug_str     0x0000e513      0x685 /usr/lib/gcc/arm-none-eabi/13.2.1/thumb/v7e-m+fp/hard/libgcc.a(_udivmoddi4.o)
 .debug_str     0x0000e513       0xc3 /usr/lib/gcc/arm-none-eabi/13.2.1/thumb/v7e-m+fp/hard/libgcc.a(_dvmd_tls.o)

.debug_loclists
                0x00000000     0xdadc
 .debug_loclists
                0x00000000      0x1c2 /usr/lib/gcc/arm-none-eabi/13.2.1/../../../arm-none-eabi/lib/thumb/v7e-m+fp/hard/libc.a(libc_a-memset.o)
 .debug_loclists
                0x000001c2       0x65 /usr/lib/gcc/arm-none-eabi/13.2.1/../../../arm-none-eabi/lib/thumb/v7e-m+fp/hard/libc.a(libc_a-init.o)
 .debug_loclists
                0x00000227       0x1b /usr/lib/gcc/arm-none-eabi/13.2.1/../../../arm-none-eabi/lib/thumb/v7e-m+fp/hard/libc.a(libc_a-exit.o)
 .debug_loclists
                0x00000242       0x2b /usr/lib/gcc/arm-none-eabi/13.2.1/../../../arm-none-eabi/lib/thumb/v7e-m+fp/hard/libc.a(libc_a-atexit.o)
 .debug_loclists
                0x0000026d       0x42 /usr/lib/gcc/arm-none-eabi/13.2.1/../../../arm-none-eabi/lib/thumb/v7e-m+fp/hard/libc.a(libc_a-fini.o)
 .debug_loclists
                0x000002af      0x102 /usr/lib/gcc/arm-none-eabi/13.2.1/../../../arm-none-eabi/lib/thumb/v7e-m+fp/hard/libc.a(libc_a-__call_atexit.o)
 .debug_loclists
                0x000003b1       0xe6 /usr/lib/gcc/arm-none-eabi/13.2.1/../../../arm-none-eabi/lib/thumb/v7e-m+fp/hard/libc.a(libc_a-__atexit.o)
 .debug_loclists
                0x00000497      0x1d0 /usr/lib/gcc/arm-none-eabi/13.2.1/../../../arm-none-eabi/lib/thumb/v7e-m+fp/hard/libc.a(libc_a-findfp.o)
 .debug_loclists
                0x00000667       0x14 /usr/lib/gcc/arm-none-eabi/13.2.1/../../../arm-none-eabi/lib/thumb/v7e-m+fp/hard/libnosys.a(_exit.o)
 .debug_loclists
                0x0000067b      0x1be _build/build-tk_kb_18010/dfu_ble_svc.o
 .debug_loclists
                0x00000839      0x171 _build/build-tk_kb_18010/dfu_init.o
 .debug_loclists
                0x000009aa       0xef _build/build-tk_kb_18010/flash_nrf5x.o
 .debug_loclists
                0x00000a99      0x38c _build/build-tk_kb_18010/main.o
 .debug_loclists
                0x00000e25      0x59f _build/build-tk_kb_18010/boards.o
 .debug_loclists
                0x000013c4      0x329 _build/build-tk_kb_18010/nrfx_power.o
 .debug_loclists
                0x000016ed      0x804 _build/build-tk_kb_18010/nrfx_nvmc.o
 .debug_loclists
                0x00001ef1       0xb0 _build/build-tk_kb_18010/system_nrf52840.o
 .debug_loclists
                0x00001fa1      0x547 _build/build-tk_kb_18010/bootloader.o
 .debug_loclists
                0x000024e8       0x3d _build/build-tk_kb_18010/bootloader_util.o
 .debug_loclists
                0x00002525      0x340 _build/build-tk_kb_18010/dfu_transport_serial.o
 .debug_loclists
                0x00002865      0xd4c _build/build-tk_kb_18010/dfu_transport_ble.o
 .debug_loclists
                0x000035b1      0x82b _build/build-tk_kb_18010/dfu_single_bank.o
 .debug_loclists
                0x00003ddc      0x662 _build/build-tk_kb_18010/ble_dfu.o
 .debug_loclists
                0x0000443e      0x230 _build/build-tk_kb_18010/ble_dis.o
 .debug_loclists
                0x0000466e      0x65c _build/build-tk_kb_18010/pstorage_raw.o
 .debug_loclists
                0x00004cca      0x88b _build/build-tk_kb_18010/app_timer.o
 .debug_loclists
                0x00005555      0x258 _build/build-tk_kb_18010/app_scheduler.o
 .debug_loclists
                0x000057ad      0x10a _build/build-tk_kb_18010/app_error.o
 .debug_loclists
                0x000058b7       0xeb _build/build-tk_kb_18010/app_util_platform.o
 .debug_loclists
                0x000059a2      0x154 _build/build-tk_kb_18010/crc16.o
 .debug_loclists
                0x00005af6      0x1e5 _build/build-tk_kb_18010/hci_mem_pool.o
 .debug_loclists
                0x00005cdb      0x232 _build/build-tk_kb_18010/hci_slip.o
 .debug_loclists
                0x00005f0d      0x8a5 _build/build-tk_kb_18010/hci_transport.o
 .debug_loclists
                0x000067b2      0x34e _build/build-tk_kb_18010/msc_uf2.o
 .debug_loclists
                0x00006b00      0x17d _build/build-tk_kb_18010/usb_desc.o
 .debug_loclists
                0x00006c7d       0xf8 _build/build-tk_kb_18010/usb.o
 .debug_loclists
                0x00006d75      0x4da _build/build-tk_kb_18010/ghostfat.o
 .debug_loclists
                0x0000724f      0xea6 _build/build-tk_kb_18010/dcd_nrf5x.o
 .debug_loclists
                0x000080f5     0x16c3 _build/build-tk_kb_18010/tusb_fifo.o
 .debug_loclists
                0x000097b8     0x1430 _build/build-tk_kb_18010/usbd.o
 .debug_loclists
                0x0000abe8      0x312 _build/build-tk_kb_18010/usbd_control.o
 .debug_loclists
                0x0000aefa      0x96d _build/build-tk_kb_18010/cdc_device.o
 .debug_loclists
                0x0000b867     0x1159 _build/build-tk_kb_18010/msc_device.o
 .debug_loclists
                0x0000c9c0      0x1e3 _build/build-tk_kb_18010/tusb.o
 .debug_loclists
                0x0000cba3       0x71 /usr/lib/gcc/arm-none-eabi/13.2.1/../../../arm-none-eabi/lib/thumb/v7e-m+fp/hard/libc_nano.a(libc_a-strcat.o)
 .debug_loclists
                0x0000cc14       0x2c /usr/lib/gcc/arm-none-eabi/13.2.1/../../../arm-none-eabi/lib/thumb/v7e-m+fp/hard/libc_nano.a(libc_a-strcpy.o)
 .debug_loclists
                0x0000cc40      0x1af /usr/lib/gcc/arm-none-eabi/13.2.1/../../../arm-none-eabi/lib/thumb/v7e-m+fp/hard/libc_nano.a(libc_a-utoa.o)
 .debug_loclists
                0x0000cdef      0x233 /usr/lib/gcc/arm-none-eabi/13.2.1/../../../arm-none-eabi/lib/thumb/v7e-m+fp/hard/libc_nano.a(libc_a-memmove.o)
 .debug_loclists
                0x0000d022       0xd6 /usr/lib/gcc/arm-none-eabi/13.2.1/../../../arm-none-eabi/lib/thumb/v7e-m+fp/hard/libc_nano.a(libc_a-memcmp.o)
 .debug_loclists
                0x0000d0f8      0x9e4 /usr/lib/gcc/arm-none-eabi/13.2.1/thumb/v7e-m+fp/hard/libgcc.a(_udivmoddi4.o)

.debug_frame    0x00000000     0x2c80
 .debug_frame   0x00000000       0x2c /usr/lib/gcc/arm-none-eabi/13.2.1/../../../arm-none-eabi/lib/thumb/v7e-m+fp/hard/libc.a(libc_a-memset.o)
 .debug_frame   0x0000002c       0x2c /usr/lib/gcc/arm-none-eabi/13.2.1/../../../arm-none-eabi/lib/thumb/v7e-m+fp/hard/libc.a(libc_a-init.o)
 .debug_frame   0x00000058       0x28 /usr/lib/gcc/arm-none-eabi/13.2.1/../../../arm-none-eabi/lib/thumb/v7e-m+fp/hard/libc.a(libc_a-exit.o)
 .debug_frame   0x00000080       0x20 /usr/lib/gcc/arm-none-eabi/13.2.1/../../../arm-none-eabi/lib/thumb/v7e-m+fp/hard/libc.a(libc_a-atexit.o)
 .debug_frame   0x000000a0       0x34 /usr/lib/gcc/arm-none-eabi/13.2.1/../../../arm-none-eabi/lib/thumb/v7e-m+fp/hard/libc.a(libc_a-fini.o)
 .debug_frame   0x000000d4       0x54 /usr/lib/gcc/arm-none-eabi/13.2.1/../../../arm-none-eabi/lib/thumb/v7e-m+fp/hard/libc.a(libc_a-__call_atexit.o)
 .debug_frame   0x00000128       0x34 /usr/lib/gcc/arm-none-eabi/13.2.1/../../../arm-none-eabi/lib/thumb/v7e-m+fp/hard/libc.a(libc_a-__atexit.o)
 .debug_frame   0x0000015c       0xf4 /usr/lib/gcc/arm-none-eabi/13.2.1/../../../arm-none-eabi/lib/thumb/v7e-m+fp/hard/libc.a(libc_a-findfp.o)
 .debug_frame   0x00000250       0x20 /usr/lib/gcc/arm-none-eabi/13.2.1/../../../arm-none-eabi/lib/thumb/v7e-m+fp/hard/libnosys.a(_exit.o)
 .debug_frame   0x00000270       0x54 _build/build-tk_kb_18010/dfu_ble_svc.o
 .debug_frame   0x000002c4       0x44 _build/build-tk_kb_18010/dfu_init.o
 .debug_frame   0x00000308       0x54 _build/build-tk_kb_18010/flash_nrf5x.o
 .debug_frame   0x0000035c      0x178 _build/build-tk_kb_18010/main.o
 .debug_frame   0x000004d4      0x104 _build/build-tk_kb_18010/boards.o
 .debug_frame   0x000005d8      0x150 _build/build-tk_kb_18010/nrfx_power.o
 .debug_frame   0x00000728      0x160 _build/build-tk_kb_18010/nrfx_nvmc.o
 .debug_frame   0x00000888       0x58 _build/build-tk_kb_18010/system_nrf52840.o
 .debug_frame   0x000008e0      0x1b0 _build/build-tk_kb_18010/bootloader.o
 .debug_frame   0x00000a90       0x40 _build/build-tk_kb_18010/bootloader_settings.o
 .debug_frame   0x00000ad0       0x40 _build/build-tk_kb_18010/bootloader_util.o
 .debug_frame   0x00000b10       0xb4 _build/build-tk_kb_18010/dfu_transport_serial.o
 .debug_frame   0x00000bc4      0x2f0 _build/build-tk_kb_18010/dfu_transport_ble.o
 .debug_frame   0x00000eb4      0x29c _build/build-tk_kb_18010/dfu_single_bank.o
 .debug_frame   0x00001150      0x140 _build/build-tk_kb_18010/ble_dfu.o
 .debug_frame   0x00001290       0x7c _build/build-tk_kb_18010/ble_dis.o
 .debug_frame   0x0000130c      0x12c _build/build-tk_kb_18010/pstorage_raw.o
 .debug_frame   0x00001438      0x18c _build/build-tk_kb_18010/app_timer.o
 .debug_frame   0x000015c4       0x8c _build/build-tk_kb_18010/app_scheduler.o
 .debug_frame   0x00001650       0x5c _build/build-tk_kb_18010/app_error.o
 .debug_frame   0x000016ac       0x84 _build/build-tk_kb_18010/app_util_platform.o
 .debug_frame   0x00001730       0x20 _build/build-tk_kb_18010/crc16.o
 .debug_frame   0x00001750       0xb8 _build/build-tk_kb_18010/hci_mem_pool.o
 .debug_frame   0x00001808      0x198 _build/build-tk_kb_18010/hci_slip.o
 .debug_frame   0x000019a0      0x198 _build/build-tk_kb_18010/hci_transport.o
 .debug_frame   0x00001b38       0xf0 _build/build-tk_kb_18010/msc_uf2.o
 .debug_frame   0x00001c28       0x6c _build/build-tk_kb_18010/usb_desc.o
 .debug_frame   0x00001c94       0xd0 _build/build-tk_kb_18010/usb.o
 .debug_frame   0x00001d64       0xa4 _build/build-tk_kb_18010/ghostfat.o
 .debug_frame   0x00001e08      0x2a8 _build/build-tk_kb_18010/dcd_nrf5x.o
 .debug_frame   0x000020b0      0x2b0 _build/build-tk_kb_18010/tusb_fifo.o
 .debug_frame   0x00002360      0x334 _build/build-tk_kb_18010/usbd.o
 .debug_frame   0x00002694       0xd8 _build/build-tk_kb_18010/usbd_control.o
 .debug_frame   0x0000276c      0x1f0 _build/build-tk_kb_18010/cdc_device.o
 .debug_frame   0x0000295c      0x13c _build/build-tk_kb_18010/msc_device.o
 .debug_frame   0x00002a98       0x80 _build/build-tk_kb_18010/tusb.o
 .debug_frame   0x00002b18       0x28 /usr/lib/gcc/arm-none-eabi/13.2.1/../../../arm-none-eabi/lib/thumb/v7e-m+fp/hard/libc_nano.a(libc_a-strcat.o)
 .debug_frame   0x00002b40       0x20 /usr/lib/gcc/arm-none-eabi/13.2.1/../../../arm-none-eabi/lib/thumb/v7e-m+fp/hard/libc_nano.a(libc_a-strcpy.o)
 .debug_frame   0x00002b60       0x4c /usr/lib/gcc/arm-none-eabi/13.2.1/../../../arm-none-eabi/lib/thumb/v7e-m+fp/hard/libc_nano.a(libc_a-utoa.o)
 .debug_frame   0x00002bac       0x40 /usr/lib/gcc/arm-none-eabi/13.2.1/../../../arm-none-eabi/lib/thumb/v7e-m+fp/hard/libc_nano.a(libc_a-memmove.o)
 .debug_frame   0x00002bec       0x34 /usr/lib/gcc/arm-none-eabi/13.2.1/../../../arm-none-eabi/lib/thumb/v7e-m+fp/hard/libc_nano.a(libc_a-memcmp.o)
 .debug_frame   0x00002c20       0x2c /usr/lib/gcc/arm-none-eabi/13.2.1/thumb/v7e-m+fp/hard/libgcc.a(_aeabi_uldivmod.o)
 .debug_frame   0x00002c4c       0x34 /usr/lib/gcc/arm-none-eabi/13.2.1/thumb/v7e-m+fp/hard/libgcc.a(_udivmoddi4.o)

.debug_rnglists
                0x00000000     0x1d6d
 .debug_rnglists
                0x00000000       0x3a /usr/lib/gcc/arm-none-eabi/13.2.1/../../../arm-none-eabi/lib/thumb/v7e-m+fp/hard/libc.a(libc_a-__call_atexit.o)
 .debug_rnglists
                0x0000003a       0x77 /usr/lib/gcc/arm-none-eabi/13.2.1/../../../arm-none-eabi/lib/thumb/v7e-m+fp/hard/libc.a(libc_a-findfp.o)
 .debug_rnglists
                0x000000b1       0x37 _build/build-tk_kb_18010/dfu_ble_svc.o
 .debug_rnglists
                0x000000e8       0x19 _build/build-tk_kb_18010/dfu_init.o
 .debug_rnglists
                0x00000101       0x19 _build/build-tk_kb_18010/flash_nrf5x.o
 .debug_rnglists
                0x0000011a       0xcc _build/build-tk_kb_18010/main.o
 .debug_rnglists
                0x000001e6       0xe9 _build/build-tk_kb_18010/boards.o
 .debug_rnglists
                0x000002cf       0xb6 _build/build-tk_kb_18010/nrfx_power.o
 .debug_rnglists
                0x00000385      0x11c _build/build-tk_kb_18010/nrfx_nvmc.o
 .debug_rnglists
                0x000004a1       0x32 _build/build-tk_kb_18010/system_nrf52840.o
 .debug_rnglists
                0x000004d3       0xd1 _build/build-tk_kb_18010/bootloader.o
 .debug_rnglists
                0x000005a4       0x19 _build/build-tk_kb_18010/bootloader_settings.o
 .debug_rnglists
                0x000005bd       0x19 _build/build-tk_kb_18010/bootloader_util.o
 .debug_rnglists
                0x000005d6       0x6f _build/build-tk_kb_18010/dfu_transport_serial.o
 .debug_rnglists
                0x00000645      0x212 _build/build-tk_kb_18010/dfu_transport_ble.o
 .debug_rnglists
                0x00000857      0x12a _build/build-tk_kb_18010/dfu_single_bank.o
 .debug_rnglists
                0x00000981       0xc2 _build/build-tk_kb_18010/ble_dfu.o
 .debug_rnglists
                0x00000a43       0x72 _build/build-tk_kb_18010/ble_dis.o
 .debug_rnglists
                0x00000ab5       0x7f _build/build-tk_kb_18010/pstorage_raw.o
 .debug_rnglists
                0x00000b34      0x23c _build/build-tk_kb_18010/app_timer.o
 .debug_rnglists
                0x00000d70       0x76 _build/build-tk_kb_18010/app_scheduler.o
 .debug_rnglists
                0x00000de6       0x1f _build/build-tk_kb_18010/app_error.o
 .debug_rnglists
                0x00000e05       0x61 _build/build-tk_kb_18010/app_util_platform.o
 .debug_rnglists
                0x00000e66       0x1f _build/build-tk_kb_18010/crc16.o
 .debug_rnglists
                0x00000e85       0x3d _build/build-tk_kb_18010/hci_mem_pool.o
 .debug_rnglists
                0x00000ec2       0xaa _build/build-tk_kb_18010/hci_slip.o
 .debug_rnglists
                0x00000f6c      0x17f _build/build-tk_kb_18010/hci_transport.o
 .debug_rnglists
                0x000010eb       0x51 _build/build-tk_kb_18010/msc_uf2.o
 .debug_rnglists
                0x0000113c       0x4d _build/build-tk_kb_18010/usb_desc.o
 .debug_rnglists
                0x00001189       0x5c _build/build-tk_kb_18010/usb.o
 .debug_rnglists
                0x000011e5       0x93 _build/build-tk_kb_18010/ghostfat.o
 .debug_rnglists
                0x00001278      0x253 _build/build-tk_kb_18010/dcd_nrf5x.o
 .debug_rnglists
                0x000014cb      0x25a _build/build-tk_kb_18010/tusb_fifo.o
 .debug_rnglists
                0x00001725      0x211 _build/build-tk_kb_18010/usbd.o
 .debug_rnglists
                0x00001936       0x59 _build/build-tk_kb_18010/usbd_control.o
 .debug_rnglists
                0x0000198f       0xd7 _build/build-tk_kb_18010/cdc_device.o
 .debug_rnglists
                0x00001a66      0x214 _build/build-tk_kb_18010/msc_device.o
 .debug_rnglists
                0x00001c7a       0x5b _build/build-tk_kb_18010/tusb.o
 .debug_rnglists
                0x00001cd5       0x14 /usr/lib/gcc/arm-none-eabi/13.2.1/../../../arm-none-eabi/lib/thumb/v7e-m+fp/hard/libc_nano.a(libc_a-strcpy.o)
 .debug_rnglists
                0x00001ce9       0x84 /usr/lib/gcc/arm-none-eabi/13.2.1/thumb/v7e-m+fp/hard/libgcc.a(_udivmoddi4.o)

Cross Reference Table

Symbol                                            File
BusFault_Handler                                  _build/build-tk_kb_18010/gcc_startup_nrf52840.o
CCM_AAR_IRQHandler                                _build/build-tk_kb_18010/gcc_startup_nrf52840.o
COMP_LPCOMP_IRQHandler                            _build/build-tk_kb_18010/gcc_startup_nrf52840.o
CRYPTOCELL_IRQHandler                             _build/build-tk_kb_18010/gcc_startup_nrf52840.o
C_SVC_Handler                                     _build/build-tk_kb_18010/dfu_ble_svc.o
DebugMon_Handler                                  _build/build-tk_kb_18010/gcc_startup_nrf52840.o
Default_Handler                                   _build/build-tk_kb_18010/gcc_startup_nrf52840.o
ECB_IRQHandler                                    _build/build-tk_kb_18010/gcc_startup_nrf52840.o
FPU_IRQHandler                                    _build/build-tk_kb_18010/gcc_startup_nrf52840.o
GPIOTE_IRQHandler                                 _build/build-tk_kb_18010/gcc_startup_nrf52840.o
HardFault_Handler                                 _build/build-tk_kb_18010/gcc_startup_nrf52840.o
I2S_IRQHandler                                    _build/build-tk_kb_18010/gcc_startup_nrf52840.o
MWU_IRQHandler                                    _build/build-tk_kb_18010/gcc_startup_nrf52840.o
MemoryManagement_Handler                          _build/build-tk_kb_18010/gcc_startup_nrf52840.o
NFCT_IRQHandler                                   _build/build-tk_kb_18010/gcc_startup_nrf52840.o
NMI_Handler                                       _build/build-tk_kb_18010/gcc_startup_nrf52840.o
PDM_IRQHandler                                    _build/build-tk_kb_18010/gcc_startup_nrf52840.o
POWER_CLOCK_IRQHandler                            _build/build-tk_kb_18010/nrfx_power.o
PWM0_IRQHandler                                   _build/build-tk_kb_18010/gcc_startup_nrf52840.o
PWM1_IRQHandler                                   _build/build-tk_kb_18010/gcc_startup_nrf52840.o
PWM2_IRQHandler                                   _build/build-tk_kb_18010/gcc_startup_nrf52840.o
PWM3_IRQHandler                                   _build/build-tk_kb_18010/gcc_startup_nrf52840.o
PendSV_Handler                                    _build/build-tk_kb_18010/gcc_startup_nrf52840.o
QDEC_IRQHandler                                   _build/build-tk_kb_18010/gcc_startup_nrf52840.o
QSPI_IRQHandler                                   _build/build-tk_kb_18010/gcc_startup_nrf52840.o
RADIO_IRQHandler                                  _build/build-tk_kb_18010/gcc_startup_nrf52840.o
RNG_IRQHandler                                    _build/build-tk_kb_18010/gcc_startup_nrf52840.o
RTC0_IRQHandler                                   _build/build-tk_kb_18010/gcc_startup_nrf52840.o
RTC1_IRQHandler                                   _build/build-tk_kb_18010/app_timer.o
RTC2_IRQHandler                                   _build/build-tk_kb_18010/gcc_startup_nrf52840.o
Reset_Handler                                     _build/build-tk_kb_18010/gcc_startup_nrf52840.o
SAADC_IRQHandler                                  _build/build-tk_kb_18010/gcc_startup_nrf52840.o
SPIM0_SPIS0_TWIM0_TWIS0_SPI0_TWI0_IRQHandler      _build/build-tk_kb_18010/gcc_startup_nrf52840.o
SPIM1_SPIS1_TWIM1_TWIS1_SPI1_TWI1_IRQHandler      _build/build-tk_kb_18010/gcc_startup_nrf52840.o
SPIM2_SPIS2_SPI2_IRQHandler                       _build/build-tk_kb_18010/gcc_startup_nrf52840.o
SPIM3_IRQHandler                                  _build/build-tk_kb_18010/gcc_startup_nrf52840.o
SVC_Handler                                       _build/build-tk_kb_18010/dfu_ble_svc.o
SWI0_EGU0_IRQHandler                              _build/build-tk_kb_18010/app_timer.o
SWI1_EGU1_IRQHandler                              _build/build-tk_kb_18010/gcc_startup_nrf52840.o
SWI2_EGU2_IRQHandler                              _build/build-tk_kb_18010/main.o
SWI3_EGU3_IRQHandler                              _build/build-tk_kb_18010/gcc_startup_nrf52840.o
SWI4_EGU4_IRQHandler                              _build/build-tk_kb_18010/gcc_startup_nrf52840.o
SWI5_EGU5_IRQHandler                              _build/build-tk_kb_18010/gcc_startup_nrf52840.o
SysTick_Handler                                   _build/build-tk_kb_18010/boards.o
SystemCoreClock                                   _build/build-tk_kb_18010/system_nrf52840.o
                                                  _build/build-tk_kb_18010/app_timer.o
                                                  _build/build-tk_kb_18010/boards.o
SystemCoreClockUpdate                             _build/build-tk_kb_18010/system_nrf52840.o
SystemInit                                        _build/build-tk_kb_18010/system_nrf52840.o
                                                  _build/build-tk_kb_18010/gcc_startup_nrf52840.o
TEMP_IRQHandler                                   _build/build-tk_kb_18010/gcc_startup_nrf52840.o
TIMER0_IRQHandler                                 _build/build-tk_kb_18010/gcc_startup_nrf52840.o
TIMER1_IRQHandler                                 _build/build-tk_kb_18010/gcc_startup_nrf52840.o
TIMER2_IRQHandler                                 _build/build-tk_kb_18010/gcc_startup_nrf52840.o
TIMER3_IRQHandler                                 _build/build-tk_kb_18010/gcc_startup_nrf52840.o
TIMER4_IRQHandler                                 _build/build-tk_kb_18010/gcc_startup_nrf52840.o
UARTE0_UART0_IRQHandler                           _build/build-tk_kb_18010/gcc_startup_nrf52840.o
UARTE1_IRQHandler                                 _build/build-tk_kb_18010/gcc_startup_nrf52840.o
USBD_IRQHandler                                   _build/build-tk_kb_18010/usb.o
UsageFault_Handler                                _build/build-tk_kb_18010/gcc_startup_nrf52840.o
WDT_IRQHandler                                    _build/build-tk_kb_18010/gcc_startup_nrf52840.o
_ITM_deregisterTMCloneTable                       /usr/lib/gcc/arm-none-eabi/13.2.1/thumb/v7e-m+fp/hard/crtbegin.o
_ITM_registerTMCloneTable                         /usr/lib/gcc/arm-none-eabi/13.2.1/thumb/v7e-m+fp/hard/crtbegin.o
__HeapBase                                        _build/build-tk_kb_18010/gcc_startup_nrf52840.o
__HeapLimit                                       _build/build-tk_kb_18010/gcc_startup_nrf52840.o
__StackLimit                                      _build/build-tk_kb_18010/gcc_startup_nrf52840.o
__StackTop                                        _build/build-tk_kb_18010/gcc_startup_nrf52840.o
__TMC_END__                                       /usr/lib/gcc/arm-none-eabi/13.2.1/thumb/v7e-m+fp/hard/crtend.o
                                                  /usr/lib/gcc/arm-none-eabi/13.2.1/thumb/v7e-m+fp/hard/crtbegin.o
__aeabi_idiv0                                     /usr/lib/gcc/arm-none-eabi/13.2.1/thumb/v7e-m+fp/hard/libgcc.a(_dvmd_tls.o)
__aeabi_ldiv0                                     /usr/lib/gcc/arm-none-eabi/13.2.1/thumb/v7e-m+fp/hard/libgcc.a(_dvmd_tls.o)
                                                  /usr/lib/gcc/arm-none-eabi/13.2.1/thumb/v7e-m+fp/hard/libgcc.a(_aeabi_uldivmod.o)
                                                  /usr/lib/gcc/arm-none-eabi/13.2.1/thumb/v7e-m+fp/hard/libgcc.a(_aeabi_ldivmod.o)
__aeabi_ldivmod                                   /usr/lib/gcc/arm-none-eabi/13.2.1/thumb/v7e-m+fp/hard/libgcc.a(_aeabi_ldivmod.o)
                                                  _build/build-tk_kb_18010/bootloader.o
__aeabi_uldivmod                                  /usr/lib/gcc/arm-none-eabi/13.2.1/thumb/v7e-m+fp/hard/libgcc.a(_aeabi_uldivmod.o)
                                                  _build/build-tk_kb_18010/bootloader.o
__atexit                                          /usr/lib/gcc/arm-none-eabi/13.2.1/../../../arm-none-eabi/lib/thumb/v7e-m+fp/hard/libc.a(libc_a-__call_atexit.o)
                                                  /usr/lib/gcc/arm-none-eabi/13.2.1/../../../arm-none-eabi/lib/thumb/v7e-m+fp/hard/libc.a(libc_a-__atexit.o)
__atexit0                                         /usr/lib/gcc/arm-none-eabi/13.2.1/../../../arm-none-eabi/lib/thumb/v7e-m+fp/hard/libc.a(libc_a-__atexit.o)
__bss_end__                                       /usr/lib/gcc/arm-none-eabi/13.2.1/../../../arm-none-eabi/lib/thumb/v7e-m+fp/hard/crt0.o
__bss_start__                                     _build/build-tk_kb_18010/gcc_startup_nrf52840.o
                                                  /usr/lib/gcc/arm-none-eabi/13.2.1/../../../arm-none-eabi/lib/thumb/v7e-m+fp/hard/crt0.o
__call_exitprocs                                  /usr/lib/gcc/arm-none-eabi/13.2.1/../../../arm-none-eabi/lib/thumb/v7e-m+fp/hard/libc.a(libc_a-__call_atexit.o)
                                                  /usr/lib/gcc/arm-none-eabi/13.2.1/../../../arm-none-eabi/lib/thumb/v7e-m+fp/hard/libc.a(libc_a-exit.o)
__data_start__                                    _build/build-tk_kb_18010/gcc_startup_nrf52840.o
                                                  _build/build-tk_kb_18010/main.o
__deregister_frame_info                           /usr/lib/gcc/arm-none-eabi/13.2.1/thumb/v7e-m+fp/hard/crtbegin.o
__dso_handle                                      /usr/lib/gcc/arm-none-eabi/13.2.1/thumb/v7e-m+fp/hard/crtbegin.o
__errno                                           /usr/lib/gcc/arm-none-eabi/13.2.1/../../../arm-none-eabi/lib/thumb/v7e-m+fp/hard/libc.a(libc_a-errno.o)
                                                  /usr/lib/gcc/arm-none-eabi/13.2.1/../../../arm-none-eabi/lib/thumb/v7e-m+fp/hard/libc.a(libc_a-sysconf.o)
__etext                                           _build/build-tk_kb_18010/gcc_startup_nrf52840.o
__fini_array_end                                  /usr/lib/gcc/arm-none-eabi/13.2.1/../../../arm-none-eabi/lib/thumb/v7e-m+fp/hard/libc.a(libc_a-fini.o)
__fini_array_start                                /usr/lib/gcc/arm-none-eabi/13.2.1/../../../arm-none-eabi/lib/thumb/v7e-m+fp/hard/libc.a(libc_a-fini.o)
__fp_lock_all                                     /usr/lib/gcc/arm-none-eabi/13.2.1/../../../arm-none-eabi/lib/thumb/v7e-m+fp/hard/libc.a(libc_a-findfp.o)
__fp_unlock_all                                   /usr/lib/gcc/arm-none-eabi/13.2.1/../../../arm-none-eabi/lib/thumb/v7e-m+fp/hard/libc.a(libc_a-findfp.o)
__init_array_end                                  /usr/lib/gcc/arm-none-eabi/13.2.1/../../../arm-none-eabi/lib/thumb/v7e-m+fp/hard/libc.a(libc_a-init.o)
__init_array_start                                /usr/lib/gcc/arm-none-eabi/13.2.1/../../../arm-none-eabi/lib/thumb/v7e-m+fp/hard/libc.a(libc_a-init.o)
__isr_vector                                      _build/build-tk_kb_18010/gcc_startup_nrf52840.o
__libc_fini                                       /usr/lib/gcc/arm-none-eabi/13.2.1/../../../arm-none-eabi/lib/thumb/v7e-m+fp/hard/libc.a(libc_a-__call_atexit.o)
__libc_fini_array                                 /usr/lib/gcc/arm-none-eabi/13.2.1/../../../arm-none-eabi/lib/thumb/v7e-m+fp/hard/libc.a(libc_a-fini.o)
                                                  /usr/lib/gcc/arm-none-eabi/13.2.1/../../../arm-none-eabi/lib/thumb/v7e-m+fp/hard/libc.a(libc_a-__call_atexit.o)
                                                  /usr/lib/gcc/arm-none-eabi/13.2.1/../../../arm-none-eabi/lib/thumb/v7e-m+fp/hard/crt0.o
__libc_init_array                                 /usr/lib/gcc/arm-none-eabi/13.2.1/../../../arm-none-eabi/lib/thumb/v7e-m+fp/hard/libc.a(libc_a-init.o)
                                                  /usr/lib/gcc/arm-none-eabi/13.2.1/../../../arm-none-eabi/lib/thumb/v7e-m+fp/hard/crt0.o
__malloc_av_                                      /usr/lib/gcc/arm-none-eabi/13.2.1/../../../arm-none-eabi/lib/thumb/v7e-m+fp/hard/libc.a(libc_a-mallocr.o)
                                                  /usr/lib/gcc/arm-none-eabi/13.2.1/../../../arm-none-eabi/lib/thumb/v7e-m+fp/hard/libc.a(libc_a-freer.o)
__malloc_current_mallinfo                         /usr/lib/gcc/arm-none-eabi/13.2.1/../../../arm-none-eabi/lib/thumb/v7e-m+fp/hard/libc.a(libc_a-mallocr.o)
                                                  /usr/lib/gcc/arm-none-eabi/13.2.1/../../../arm-none-eabi/lib/thumb/v7e-m+fp/hard/libc.a(libc_a-freer.o)
__malloc_lock                                     /usr/lib/gcc/arm-none-eabi/13.2.1/../../../arm-none-eabi/lib/thumb/v7e-m+fp/hard/libc.a(libc_a-mlock.o)
                                                  /usr/lib/gcc/arm-none-eabi/13.2.1/../../../arm-none-eabi/lib/thumb/v7e-m+fp/hard/libc.a(libc_a-freer.o)
                                                  /usr/lib/gcc/arm-none-eabi/13.2.1/../../../arm-none-eabi/lib/thumb/v7e-m+fp/hard/libc.a(libc_a-mallocr.o)
__malloc_max_sbrked_mem                           /usr/lib/gcc/arm-none-eabi/13.2.1/../../../arm-none-eabi/lib/thumb/v7e-m+fp/hard/libc.a(libc_a-mallocr.o)
__malloc_max_total_mem                            /usr/lib/gcc/arm-none-eabi/13.2.1/../../../arm-none-eabi/lib/thumb/v7e-m+fp/hard/libc.a(libc_a-mallocr.o)
__malloc_sbrk_base                                /usr/lib/gcc/arm-none-eabi/13.2.1/../../../arm-none-eabi/lib/thumb/v7e-m+fp/hard/libc.a(libc_a-mallocr.o)
                                                  /usr/lib/gcc/arm-none-eabi/13.2.1/../../../arm-none-eabi/lib/thumb/v7e-m+fp/hard/libc.a(libc_a-freer.o)
__malloc_top_pad                                  /usr/lib/gcc/arm-none-eabi/13.2.1/../../../arm-none-eabi/lib/thumb/v7e-m+fp/hard/libc.a(libc_a-mallocr.o)
                                                  /usr/lib/gcc/arm-none-eabi/13.2.1/../../../arm-none-eabi/lib/thumb/v7e-m+fp/hard/libc.a(libc_a-freer.o)
__malloc_trim_threshold                           /usr/lib/gcc/arm-none-eabi/13.2.1/../../../arm-none-eabi/lib/thumb/v7e-m+fp/hard/libc.a(libc_a-mallocr.o)
                                                  /usr/lib/gcc/arm-none-eabi/13.2.1/../../../arm-none-eabi/lib/thumb/v7e-m+fp/hard/libc.a(libc_a-freer.o)
__malloc_unlock                                   /usr/lib/gcc/arm-none-eabi/13.2.1/../../../arm-none-eabi/lib/thumb/v7e-m+fp/hard/libc.a(libc_a-mlock.o)
                                                  /usr/lib/gcc/arm-none-eabi/13.2.1/../../../arm-none-eabi/lib/thumb/v7e-m+fp/hard/libc.a(libc_a-freer.o)
                                                  /usr/lib/gcc/arm-none-eabi/13.2.1/../../../arm-none-eabi/lib/thumb/v7e-m+fp/hard/libc.a(libc_a-mallocr.o)
__preinit_array_end                               /usr/lib/gcc/arm-none-eabi/13.2.1/../../../arm-none-eabi/lib/thumb/v7e-m+fp/hard/libc.a(libc_a-init.o)
__preinit_array_start                             /usr/lib/gcc/arm-none-eabi/13.2.1/../../../arm-none-eabi/lib/thumb/v7e-m+fp/hard/libc.a(libc_a-init.o)
__register_exitproc                               /usr/lib/gcc/arm-none-eabi/13.2.1/../../../arm-none-eabi/lib/thumb/v7e-m+fp/hard/libc.a(libc_a-__atexit.o)
                                                  /usr/lib/gcc/arm-none-eabi/13.2.1/../../../arm-none-eabi/lib/thumb/v7e-m+fp/hard/libc.a(libc_a-atexit.o)
__register_frame_info                             /usr/lib/gcc/arm-none-eabi/13.2.1/thumb/v7e-m+fp/hard/crtbegin.o
__sclose                                          /usr/lib/gcc/arm-none-eabi/13.2.1/../../../arm-none-eabi/lib/thumb/v7e-m+fp/hard/libc.a(libc_a-stdio.o)
                                                  /usr/lib/gcc/arm-none-eabi/13.2.1/../../../arm-none-eabi/lib/thumb/v7e-m+fp/hard/libc.a(libc_a-findfp.o)
__seofread                                        /usr/lib/gcc/arm-none-eabi/13.2.1/../../../arm-none-eabi/lib/thumb/v7e-m+fp/hard/libc.a(libc_a-stdio.o)
__sf                                              /usr/lib/gcc/arm-none-eabi/13.2.1/../../../arm-none-eabi/lib/thumb/v7e-m+fp/hard/libc.a(libc_a-findfp.o)
                                                  /usr/lib/gcc/arm-none-eabi/13.2.1/../../../arm-none-eabi/lib/thumb/v7e-m+fp/hard/libc.a(libc_a-impure.o)
__sflush_r                                        /usr/lib/gcc/arm-none-eabi/13.2.1/../../../arm-none-eabi/lib/thumb/v7e-m+fp/hard/libc.a(libc_a-fflush.o)
                                                  /usr/lib/gcc/arm-none-eabi/13.2.1/../../../arm-none-eabi/lib/thumb/v7e-m+fp/hard/libc.a(libc_a-fclose.o)
__sfp                                             /usr/lib/gcc/arm-none-eabi/13.2.1/../../../arm-none-eabi/lib/thumb/v7e-m+fp/hard/libc.a(libc_a-findfp.o)
__sfp_lock_acquire                                /usr/lib/gcc/arm-none-eabi/13.2.1/../../../arm-none-eabi/lib/thumb/v7e-m+fp/hard/libc.a(libc_a-findfp.o)
                                                  /usr/lib/gcc/arm-none-eabi/13.2.1/../../../arm-none-eabi/lib/thumb/v7e-m+fp/hard/libc.a(libc_a-fclose.o)
__sfp_lock_release                                /usr/lib/gcc/arm-none-eabi/13.2.1/../../../arm-none-eabi/lib/thumb/v7e-m+fp/hard/libc.a(libc_a-findfp.o)
                                                  /usr/lib/gcc/arm-none-eabi/13.2.1/../../../arm-none-eabi/lib/thumb/v7e-m+fp/hard/libc.a(libc_a-fclose.o)
__sglue                                           /usr/lib/gcc/arm-none-eabi/13.2.1/../../../arm-none-eabi/lib/thumb/v7e-m+fp/hard/libc.a(libc_a-findfp.o)
                                                  /usr/lib/gcc/arm-none-eabi/13.2.1/../../../arm-none-eabi/lib/thumb/v7e-m+fp/hard/libc.a(libc_a-fflush.o)
__sinit                                           /usr/lib/gcc/arm-none-eabi/13.2.1/../../../arm-none-eabi/lib/thumb/v7e-m+fp/hard/libc.a(libc_a-findfp.o)
                                                  /usr/lib/gcc/arm-none-eabi/13.2.1/../../../arm-none-eabi/lib/thumb/v7e-m+fp/hard/libc.a(libc_a-fflush.o)
                                                  /usr/lib/gcc/arm-none-eabi/13.2.1/../../../arm-none-eabi/lib/thumb/v7e-m+fp/hard/libc.a(libc_a-fclose.o)
__sread                                           /usr/lib/gcc/arm-none-eabi/13.2.1/../../../arm-none-eabi/lib/thumb/v7e-m+fp/hard/libc.a(libc_a-stdio.o)
                                                  /usr/lib/gcc/arm-none-eabi/13.2.1/../../../arm-none-eabi/lib/thumb/v7e-m+fp/hard/libc.a(libc_a-findfp.o)
__sseek                                           /usr/lib/gcc/arm-none-eabi/13.2.1/../../../arm-none-eabi/lib/thumb/v7e-m+fp/hard/libc.a(libc_a-stdio.o)
                                                  /usr/lib/gcc/arm-none-eabi/13.2.1/../../../arm-none-eabi/lib/thumb/v7e-m+fp/hard/libc.a(libc_a-findfp.o)
__stack                                           /usr/lib/gcc/arm-none-eabi/13.2.1/../../../arm-none-eabi/lib/thumb/v7e-m+fp/hard/crt0.o
__stdio_exit_handler                              /usr/lib/gcc/arm-none-eabi/13.2.1/../../../arm-none-eabi/lib/thumb/v7e-m+fp/hard/libc.a(libc_a-findfp.o)
                                                  /usr/lib/gcc/arm-none-eabi/13.2.1/../../../arm-none-eabi/lib/thumb/v7e-m+fp/hard/libc.a(libc_a-exit.o)
__swrite                                          /usr/lib/gcc/arm-none-eabi/13.2.1/../../../arm-none-eabi/lib/thumb/v7e-m+fp/hard/libc.a(libc_a-stdio.o)
                                                  /usr/lib/gcc/arm-none-eabi/13.2.1/../../../arm-none-eabi/lib/thumb/v7e-m+fp/hard/libc.a(libc_a-findfp.o)
__udivmoddi4                                      /usr/lib/gcc/arm-none-eabi/13.2.1/thumb/v7e-m+fp/hard/libgcc.a(_udivmoddi4.o)
                                                  /usr/lib/gcc/arm-none-eabi/13.2.1/thumb/v7e-m+fp/hard/libgcc.a(_aeabi_uldivmod.o)
                                                  /usr/lib/gcc/arm-none-eabi/13.2.1/thumb/v7e-m+fp/hard/libgcc.a(_aeabi_ldivmod.o)
__utoa                                            /usr/lib/gcc/arm-none-eabi/13.2.1/../../../arm-none-eabi/lib/thumb/v7e-m+fp/hard/libc_nano.a(libc_a-utoa.o)
_close                                            /usr/lib/gcc/arm-none-eabi/13.2.1/../../../arm-none-eabi/lib/thumb/v7e-m+fp/hard/libnosys.a(close.o)
                                                  /usr/lib/gcc/arm-none-eabi/13.2.1/../../../arm-none-eabi/lib/thumb/v7e-m+fp/hard/libc.a(libc_a-closer.o)
_close_r                                          /usr/lib/gcc/arm-none-eabi/13.2.1/../../../arm-none-eabi/lib/thumb/v7e-m+fp/hard/libc.a(libc_a-closer.o)
                                                  /usr/lib/gcc/arm-none-eabi/13.2.1/../../../arm-none-eabi/lib/thumb/v7e-m+fp/hard/libc.a(libc_a-stdio.o)
_exit                                             /usr/lib/gcc/arm-none-eabi/13.2.1/../../../arm-none-eabi/lib/thumb/v7e-m+fp/hard/libnosys.a(_exit.o)
                                                  /usr/lib/gcc/arm-none-eabi/13.2.1/../../../arm-none-eabi/lib/thumb/v7e-m+fp/hard/libc.a(libc_a-exit.o)
_fclose_r                                         /usr/lib/gcc/arm-none-eabi/13.2.1/../../../arm-none-eabi/lib/thumb/v7e-m+fp/hard/libc.a(libc_a-fclose.o)
                                                  /usr/lib/gcc/arm-none-eabi/13.2.1/../../../arm-none-eabi/lib/thumb/v7e-m+fp/hard/libc.a(libc_a-findfp.o)
_fflush_r                                         /usr/lib/gcc/arm-none-eabi/13.2.1/../../../arm-none-eabi/lib/thumb/v7e-m+fp/hard/libc.a(libc_a-fflush.o)
_fini                                             /usr/lib/gcc/arm-none-eabi/13.2.1/thumb/v7e-m+fp/hard/crti.o
                                                  /usr/lib/gcc/arm-none-eabi/13.2.1/../../../arm-none-eabi/lib/thumb/v7e-m+fp/hard/libc.a(libc_a-fini.o)
_free_r                                           /usr/lib/gcc/arm-none-eabi/13.2.1/../../../arm-none-eabi/lib/thumb/v7e-m+fp/hard/libc.a(libc_a-freer.o)
                                                  /usr/lib/gcc/arm-none-eabi/13.2.1/../../../arm-none-eabi/lib/thumb/v7e-m+fp/hard/libc.a(libc_a-reent.o)
                                                  /usr/lib/gcc/arm-none-eabi/13.2.1/../../../arm-none-eabi/lib/thumb/v7e-m+fp/hard/libc.a(libc_a-fflush.o)
                                                  /usr/lib/gcc/arm-none-eabi/13.2.1/../../../arm-none-eabi/lib/thumb/v7e-m+fp/hard/libc.a(libc_a-fclose.o)
                                                  /usr/lib/gcc/arm-none-eabi/13.2.1/../../../arm-none-eabi/lib/thumb/v7e-m+fp/hard/libc.a(libc_a-mallocr.o)
_fwalk_sglue                                      /usr/lib/gcc/arm-none-eabi/13.2.1/../../../arm-none-eabi/lib/thumb/v7e-m+fp/hard/libc.a(libc_a-fwalk.o)
                                                  /usr/lib/gcc/arm-none-eabi/13.2.1/../../../arm-none-eabi/lib/thumb/v7e-m+fp/hard/libc.a(libc_a-fflush.o)
                                                  /usr/lib/gcc/arm-none-eabi/13.2.1/../../../arm-none-eabi/lib/thumb/v7e-m+fp/hard/libc.a(libc_a-findfp.o)
_impure_data                                      /usr/lib/gcc/arm-none-eabi/13.2.1/../../../arm-none-eabi/lib/thumb/v7e-m+fp/hard/libc.a(libc_a-impure.o)
                                                  /usr/lib/gcc/arm-none-eabi/13.2.1/../../../arm-none-eabi/lib/thumb/v7e-m+fp/hard/libc.a(libc_a-fflush.o)
                                                  /usr/lib/gcc/arm-none-eabi/13.2.1/../../../arm-none-eabi/lib/thumb/v7e-m+fp/hard/libc.a(libc_a-findfp.o)
_impure_ptr                                       /usr/lib/gcc/arm-none-eabi/13.2.1/../../../arm-none-eabi/lib/thumb/v7e-m+fp/hard/libc.a(libc_a-impure.o)
                                                  /usr/lib/gcc/arm-none-eabi/13.2.1/../../../arm-none-eabi/lib/thumb/v7e-m+fp/hard/libc.a(libc_a-reent.o)
                                                  /usr/lib/gcc/arm-none-eabi/13.2.1/../../../arm-none-eabi/lib/thumb/v7e-m+fp/hard/libc.a(libc_a-errno.o)
                                                  /usr/lib/gcc/arm-none-eabi/13.2.1/../../../arm-none-eabi/lib/thumb/v7e-m+fp/hard/libc.a(libc_a-fflush.o)
                                                  /usr/lib/gcc/arm-none-eabi/13.2.1/../../../arm-none-eabi/lib/thumb/v7e-m+fp/hard/libc.a(libc_a-fclose.o)
_init                                             /usr/lib/gcc/arm-none-eabi/13.2.1/thumb/v7e-m+fp/hard/crti.o
                                                  /usr/lib/gcc/arm-none-eabi/13.2.1/../../../arm-none-eabi/lib/thumb/v7e-m+fp/hard/libc.a(libc_a-init.o)
_lseek                                            /usr/lib/gcc/arm-none-eabi/13.2.1/../../../arm-none-eabi/lib/thumb/v7e-m+fp/hard/libnosys.a(lseek.o)
                                                  /usr/lib/gcc/arm-none-eabi/13.2.1/../../../arm-none-eabi/lib/thumb/v7e-m+fp/hard/libc.a(libc_a-lseekr.o)
_lseek_r                                          /usr/lib/gcc/arm-none-eabi/13.2.1/../../../arm-none-eabi/lib/thumb/v7e-m+fp/hard/libc.a(libc_a-lseekr.o)
                                                  /usr/lib/gcc/arm-none-eabi/13.2.1/../../../arm-none-eabi/lib/thumb/v7e-m+fp/hard/libc.a(libc_a-stdio.o)
_mainCRTStartup                                   /usr/lib/gcc/arm-none-eabi/13.2.1/../../../arm-none-eabi/lib/thumb/v7e-m+fp/hard/crt0.o
_malloc_r                                         /usr/lib/gcc/arm-none-eabi/13.2.1/../../../arm-none-eabi/lib/thumb/v7e-m+fp/hard/libc.a(libc_a-mallocr.o)
                                                  /usr/lib/gcc/arm-none-eabi/13.2.1/../../../arm-none-eabi/lib/thumb/v7e-m+fp/hard/libc.a(libc_a-findfp.o)
_malloc_trim_r                                    /usr/lib/gcc/arm-none-eabi/13.2.1/../../../arm-none-eabi/lib/thumb/v7e-m+fp/hard/libc.a(libc_a-freer.o)
_ota_connected                                    _build/build-tk_kb_18010/main.o
_ota_dfu                                          _build/build-tk_kb_18010/main.o
_read                                             /usr/lib/gcc/arm-none-eabi/13.2.1/../../../arm-none-eabi/lib/thumb/v7e-m+fp/hard/libnosys.a(read.o)
                                                  /usr/lib/gcc/arm-none-eabi/13.2.1/../../../arm-none-eabi/lib/thumb/v7e-m+fp/hard/libc.a(libc_a-readr.o)
_read_r                                           /usr/lib/gcc/arm-none-eabi/13.2.1/../../../arm-none-eabi/lib/thumb/v7e-m+fp/hard/libc.a(libc_a-readr.o)
                                                  /usr/lib/gcc/arm-none-eabi/13.2.1/../../../arm-none-eabi/lib/thumb/v7e-m+fp/hard/libc.a(libc_a-stdio.o)
_reclaim_reent                                    /usr/lib/gcc/arm-none-eabi/13.2.1/../../../arm-none-eabi/lib/thumb/v7e-m+fp/hard/libc.a(libc_a-reent.o)
_sbrk                                             /usr/lib/gcc/arm-none-eabi/13.2.1/../../../arm-none-eabi/lib/thumb/v7e-m+fp/hard/libnosys.a(sbrk.o)
                                                  /usr/lib/gcc/arm-none-eabi/13.2.1/../../../arm-none-eabi/lib/thumb/v7e-m+fp/hard/libc.a(libc_a-sbrkr.o)
_sbrk_r                                           /usr/lib/gcc/arm-none-eabi/13.2.1/../../../arm-none-eabi/lib/thumb/v7e-m+fp/hard/libc.a(libc_a-sbrkr.o)
                                                  /usr/lib/gcc/arm-none-eabi/13.2.1/../../../arm-none-eabi/lib/thumb/v7e-m+fp/hard/libc.a(libc_a-freer.o)
                                                  /usr/lib/gcc/arm-none-eabi/13.2.1/../../../arm-none-eabi/lib/thumb/v7e-m+fp/hard/libc.a(libc_a-mallocr.o)
_sd_inited                                        _build/build-tk_kb_18010/main.o
_stack_init                                       /usr/lib/gcc/arm-none-eabi/13.2.1/../../../arm-none-eabi/lib/thumb/v7e-m+fp/hard/crt0.o
_start                                            /usr/lib/gcc/arm-none-eabi/13.2.1/../../../arm-none-eabi/lib/thumb/v7e-m+fp/hard/crt0.o
                                                  _build/build-tk_kb_18010/gcc_startup_nrf52840.o
_usbd_qdef                                        _build/build-tk_kb_18010/usbd.o
_usbd_qdef_buf                                    _build/build-tk_kb_18010/usbd.o
_write                                            /usr/lib/gcc/arm-none-eabi/13.2.1/../../../arm-none-eabi/lib/thumb/v7e-m+fp/hard/libnosys.a(write.o)
                                                  /usr/lib/gcc/arm-none-eabi/13.2.1/../../../arm-none-eabi/lib/thumb/v7e-m+fp/hard/libc.a(libc_a-writer.o)
_write_r                                          /usr/lib/gcc/arm-none-eabi/13.2.1/../../../arm-none-eabi/lib/thumb/v7e-m+fp/hard/libc.a(libc_a-writer.o)
                                                  /usr/lib/gcc/arm-none-eabi/13.2.1/../../../arm-none-eabi/lib/thumb/v7e-m+fp/hard/libc.a(libc_a-stdio.o)
app_error_fault_handler                           _build/build-tk_kb_18010/main.o
                                                  _build/build-tk_kb_18010/nrf_assert.o
                                                  _build/build-tk_kb_18010/app_error.o
app_error_handler                                 _build/build-tk_kb_18010/app_error.o
app_error_handler_bare                            _build/build-tk_kb_18010/app_error.o
                                                  _build/build-tk_kb_18010/hci_transport.o
                                                  _build/build-tk_kb_18010/app_timer.o
                                                  _build/build-tk_kb_18010/ble_dis.o
                                                  _build/build-tk_kb_18010/dfu_single_bank.o
                                                  _build/build-tk_kb_18010/dfu_transport_ble.o
                                                  _build/build-tk_kb_18010/dfu_transport_serial.o
                                                  _build/build-tk_kb_18010/bootloader.o
                                                  _build/build-tk_kb_18010/boards.o
app_error_save_and_stop                           _build/build-tk_kb_18010/app_error.o
app_sched_event_put                               _build/build-tk_kb_18010/app_scheduler.o
                                                  _build/build-tk_kb_18010/app_timer.o
                                                  _build/build-tk_kb_18010/dfu_transport_serial.o
                                                  _build/build-tk_kb_18010/main.o
app_sched_execute                                 _build/build-tk_kb_18010/app_scheduler.o
                                                  _build/build-tk_kb_18010/bootloader.o
app_sched_init                                    _build/build-tk_kb_18010/app_scheduler.o
                                                  _build/build-tk_kb_18010/boards.o
app_sched_queue_space_get                         _build/build-tk_kb_18010/app_scheduler.o
app_timer_cnt_diff_compute                        _build/build-tk_kb_18010/app_timer.o
app_timer_cnt_get                                 _build/build-tk_kb_18010/app_timer.o
app_timer_create                                  _build/build-tk_kb_18010/app_timer.o
                                                  _build/build-tk_kb_18010/hci_transport.o
                                                  _build/build-tk_kb_18010/bootloader.o
app_timer_init                                    _build/build-tk_kb_18010/app_timer.o
                                                  _build/build-tk_kb_18010/boards.o
app_timer_pause                                   _build/build-tk_kb_18010/app_timer.o
app_timer_resume                                  _build/build-tk_kb_18010/app_timer.o
app_timer_start                                   _build/build-tk_kb_18010/app_timer.o
                                                  _build/build-tk_kb_18010/hci_transport.o
                                                  _build/build-tk_kb_18010/bootloader.o
app_timer_stop                                    _build/build-tk_kb_18010/app_timer.o
                                                  _build/build-tk_kb_18010/hci_transport.o
app_timer_stop_all                                _build/build-tk_kb_18010/app_timer.o
app_util_critical_region_enter                    _build/build-tk_kb_18010/app_util_platform.o
                                                  _build/build-tk_kb_18010/app_scheduler.o
                                                  _build/build-tk_kb_18010/app_timer.o
app_util_critical_region_exit                     _build/build-tk_kb_18010/app_util_platform.o
                                                  _build/build-tk_kb_18010/app_scheduler.o
                                                  _build/build-tk_kb_18010/app_timer.o
app_util_disable_irq                              _build/build-tk_kb_18010/app_util_platform.o
app_util_enable_irq                               _build/build-tk_kb_18010/app_util_platform.o
assert_nrf_callback                               _build/build-tk_kb_18010/main.o
atexit                                            /usr/lib/gcc/arm-none-eabi/13.2.1/../../../arm-none-eabi/lib/thumb/v7e-m+fp/hard/libc.a(libc_a-atexit.o)
                                                  /usr/lib/gcc/arm-none-eabi/13.2.1/../../../arm-none-eabi/lib/thumb/v7e-m+fp/hard/libc.a(libc_a-__call_atexit.o)
                                                  /usr/lib/gcc/arm-none-eabi/13.2.1/../../../arm-none-eabi/lib/thumb/v7e-m+fp/hard/crt0.o
ble_dfu_bytes_rcvd_report                         _build/build-tk_kb_18010/ble_dfu.o
                                                  _build/build-tk_kb_18010/dfu_transport_ble.o
ble_dfu_init                                      _build/build-tk_kb_18010/ble_dfu.o
                                                  _build/build-tk_kb_18010/dfu_transport_ble.o
ble_dfu_on_ble_evt                                _build/build-tk_kb_18010/ble_dfu.o
                                                  _build/build-tk_kb_18010/dfu_transport_ble.o
ble_dfu_pkts_rcpt_notify                          _build/build-tk_kb_18010/ble_dfu.o
                                                  _build/build-tk_kb_18010/dfu_transport_ble.o
ble_dfu_response_send                             _build/build-tk_kb_18010/ble_dfu.o
                                                  _build/build-tk_kb_18010/dfu_transport_ble.o
ble_dis_init                                      _build/build-tk_kb_18010/ble_dis.o
                                                  _build/build-tk_kb_18010/dfu_transport_ble.o
ble_evt_dispatch                                  _build/build-tk_kb_18010/dfu_transport_ble.o
                                                  _build/build-tk_kb_18010/main.o
board_init                                        _build/build-tk_kb_18010/boards.o
                                                  _build/build-tk_kb_18010/main.o
board_init2                                       _build/build-tk_kb_18010/boards.o
board_teardown                                    _build/build-tk_kb_18010/boards.o
                                                  _build/build-tk_kb_18010/main.o
board_teardown2                                   _build/build-tk_kb_18010/boards.o
bootloaderConfig                                  _build/build-tk_kb_18010/pinconfig.o
                                                  _build/build-tk_kb_18010/ghostfat.o
bootloader_app_is_valid                           _build/build-tk_kb_18010/bootloader.o
                                                  _build/build-tk_kb_18010/main.o
bootloader_app_start                              _build/build-tk_kb_18010/bootloader.o
                                                  _build/build-tk_kb_18010/main.o
bootloader_dfu_sd_in_progress                     _build/build-tk_kb_18010/bootloader.o
                                                  _build/build-tk_kb_18010/main.o
bootloader_dfu_sd_update_continue                 _build/build-tk_kb_18010/bootloader.o
                                                  _build/build-tk_kb_18010/main.o
bootloader_dfu_sd_update_finalize                 _build/build-tk_kb_18010/bootloader.o
                                                  _build/build-tk_kb_18010/main.o
bootloader_dfu_start                              _build/build-tk_kb_18010/bootloader.o
                                                  _build/build-tk_kb_18010/main.o
bootloader_dfu_update_process                     _build/build-tk_kb_18010/bootloader.o
                                                  _build/build-tk_kb_18010/msc_uf2.o
                                                  _build/build-tk_kb_18010/dfu_single_bank.o
                                                  _build/build-tk_kb_18010/dfu_transport_ble.o
bootloader_init                                   _build/build-tk_kb_18010/bootloader.o
                                                  _build/build-tk_kb_18010/main.o
bootloader_mbr_addrs_populate                     _build/build-tk_kb_18010/bootloader_settings.o
bootloader_settings_get                           _build/build-tk_kb_18010/bootloader.o
                                                  _build/build-tk_kb_18010/dfu_single_bank.o
bootloader_util_app_start                         _build/build-tk_kb_18010/bootloader_util.o
                                                  _build/build-tk_kb_18010/bootloader.o
bootloader_util_settings_get                      _build/build-tk_kb_18010/bootloader_settings.o
                                                  _build/build-tk_kb_18010/bootloader.o
bus_reset                                         _build/build-tk_kb_18010/dcd_nrf5x.o
button_init                                       _build/build-tk_kb_18010/boards.o
button_pressed                                    _build/build-tk_kb_18010/boards.o
                                                  _build/build-tk_kb_18010/main.o
cdcd_control_xfer_cb                              _build/build-tk_kb_18010/cdc_device.o
                                                  _build/build-tk_kb_18010/usbd.o
cdcd_init                                         _build/build-tk_kb_18010/cdc_device.o
                                                  _build/build-tk_kb_18010/usbd.o
cdcd_open                                         _build/build-tk_kb_18010/cdc_device.o
                                                  _build/build-tk_kb_18010/usbd.o
cdcd_reset                                        _build/build-tk_kb_18010/cdc_device.o
                                                  _build/build-tk_kb_18010/usbd.o
cdcd_xfer_cb                                      _build/build-tk_kb_18010/cdc_device.o
                                                  _build/build-tk_kb_18010/usbd.o
crc16_compute                                     _build/build-tk_kb_18010/crc16.o
                                                  _build/build-tk_kb_18010/hci_transport.o
                                                  _build/build-tk_kb_18010/bootloader.o
                                                  _build/build-tk_kb_18010/dfu_init.o
                                                  _build/build-tk_kb_18010/dfu_ble_svc.o
current_int_priority_get                          _build/build-tk_kb_18010/app_util_platform.o
dbl_reset_mem                                     _build/build-tk_kb_18010/main.o
dcd_connect                                       _build/build-tk_kb_18010/dcd_nrf5x.o
                                                  _build/build-tk_kb_18010/usbd.o
dcd_disconnect                                    _build/build-tk_kb_18010/dcd_nrf5x.o
                                                  _build/build-tk_kb_18010/usbd.o
dcd_edpt0_status_complete                         _build/build-tk_kb_18010/usbd_control.o
dcd_edpt_clear_stall                              _build/build-tk_kb_18010/dcd_nrf5x.o
                                                  _build/build-tk_kb_18010/usbd.o
dcd_edpt_close                                    _build/build-tk_kb_18010/dcd_nrf5x.o
                                                  _build/build-tk_kb_18010/usbd.o
dcd_edpt_close_all                                _build/build-tk_kb_18010/dcd_nrf5x.o
                                                  _build/build-tk_kb_18010/usbd.o
dcd_edpt_open                                     _build/build-tk_kb_18010/dcd_nrf5x.o
                                                  _build/build-tk_kb_18010/usbd.o
dcd_edpt_stall                                    _build/build-tk_kb_18010/dcd_nrf5x.o
                                                  _build/build-tk_kb_18010/usbd_control.o
                                                  _build/build-tk_kb_18010/usbd.o
dcd_edpt_xfer                                     _build/build-tk_kb_18010/dcd_nrf5x.o
                                                  _build/build-tk_kb_18010/usbd.o
dcd_edpt_xfer_fifo                                _build/build-tk_kb_18010/usbd.o
dcd_event_bus_reset                               _build/build-tk_kb_18010/usbd.o
                                                  _build/build-tk_kb_18010/dcd_nrf5x.o
dcd_event_bus_signal                              _build/build-tk_kb_18010/usbd.o
                                                  _build/build-tk_kb_18010/dcd_nrf5x.o
dcd_event_handler                                 _build/build-tk_kb_18010/usbd.o
dcd_event_setup_received                          _build/build-tk_kb_18010/usbd.o
                                                  _build/build-tk_kb_18010/dcd_nrf5x.o
dcd_event_xfer_complete                           _build/build-tk_kb_18010/usbd.o
                                                  _build/build-tk_kb_18010/msc_device.o
                                                  _build/build-tk_kb_18010/dcd_nrf5x.o
dcd_init                                          _build/build-tk_kb_18010/dcd_nrf5x.o
                                                  _build/build-tk_kb_18010/usbd.o
dcd_int_disable                                   _build/build-tk_kb_18010/dcd_nrf5x.o
                                                  _build/build-tk_kb_18010/usbd.o
dcd_int_enable                                    _build/build-tk_kb_18010/dcd_nrf5x.o
                                                  _build/build-tk_kb_18010/usbd.o
dcd_int_handler                                   _build/build-tk_kb_18010/dcd_nrf5x.o
                                                  _build/build-tk_kb_18010/usb.o
dcd_remote_wakeup                                 _build/build-tk_kb_18010/dcd_nrf5x.o
                                                  _build/build-tk_kb_18010/usbd.o
dcd_set_address                                   _build/build-tk_kb_18010/dcd_nrf5x.o
                                                  _build/build-tk_kb_18010/usbd.o
desc_configuration_cdc_msc                        _build/build-tk_kb_18010/usb_desc.o
desc_configuration_cdc_only                       _build/build-tk_kb_18010/usb_desc.o
desc_device                                       _build/build-tk_kb_18010/usb_desc.o
dfu_bl_image_swap                                 _build/build-tk_kb_18010/dfu_single_bank.o
                                                  _build/build-tk_kb_18010/bootloader.o
dfu_bl_image_validate                             _build/build-tk_kb_18010/dfu_single_bank.o
                                                  _build/build-tk_kb_18010/bootloader.o
dfu_ble_peer_data_get                             _build/build-tk_kb_18010/dfu_ble_svc.o
                                                  _build/build-tk_kb_18010/dfu_transport_ble.o
dfu_data_pkt_handle                               _build/build-tk_kb_18010/dfu_single_bank.o
                                                  _build/build-tk_kb_18010/dfu_transport_ble.o
                                                  _build/build-tk_kb_18010/dfu_transport_serial.o
dfu_image_activate                                _build/build-tk_kb_18010/dfu_single_bank.o
                                                  _build/build-tk_kb_18010/dfu_transport_ble.o
                                                  _build/build-tk_kb_18010/dfu_transport_serial.o
dfu_image_validate                                _build/build-tk_kb_18010/dfu_single_bank.o
                                                  _build/build-tk_kb_18010/dfu_transport_ble.o
                                                  _build/build-tk_kb_18010/dfu_transport_serial.o
dfu_init                                          _build/build-tk_kb_18010/dfu_single_bank.o
                                                  _build/build-tk_kb_18010/bootloader.o
dfu_init_pkt_complete                             _build/build-tk_kb_18010/dfu_single_bank.o
                                                  _build/build-tk_kb_18010/dfu_transport_ble.o
                                                  _build/build-tk_kb_18010/dfu_transport_serial.o
dfu_init_pkt_handle                               _build/build-tk_kb_18010/dfu_single_bank.o
                                                  _build/build-tk_kb_18010/dfu_transport_ble.o
                                                  _build/build-tk_kb_18010/dfu_transport_serial.o
dfu_init_postvalidate                             _build/build-tk_kb_18010/dfu_init.o
                                                  _build/build-tk_kb_18010/dfu_single_bank.o
dfu_init_prevalidate                              _build/build-tk_kb_18010/dfu_init.o
                                                  _build/build-tk_kb_18010/dfu_single_bank.o
dfu_register_callback                             _build/build-tk_kb_18010/dfu_single_bank.o
                                                  _build/build-tk_kb_18010/dfu_transport_ble.o
                                                  _build/build-tk_kb_18010/dfu_transport_serial.o
dfu_reset                                         _build/build-tk_kb_18010/dfu_single_bank.o
                                                  _build/build-tk_kb_18010/dfu_transport_ble.o
dfu_sd_image_swap                                 _build/build-tk_kb_18010/dfu_single_bank.o
                                                  _build/build-tk_kb_18010/bootloader.o
dfu_sd_image_validate                             _build/build-tk_kb_18010/dfu_single_bank.o
                                                  _build/build-tk_kb_18010/bootloader.o
dfu_start_pkt_handle                              _build/build-tk_kb_18010/dfu_single_bank.o
                                                  _build/build-tk_kb_18010/dfu_transport_ble.o
                                                  _build/build-tk_kb_18010/dfu_transport_serial.o
dfu_startup_packet_received                       _build/build-tk_kb_18010/bootloader.o
                                                  _build/build-tk_kb_18010/dfu_transport_serial.o
dfu_transport_ble_close                           _build/build-tk_kb_18010/dfu_transport_ble.o
                                                  _build/build-tk_kb_18010/bootloader.o
dfu_transport_ble_update_start                    _build/build-tk_kb_18010/dfu_transport_ble.o
                                                  _build/build-tk_kb_18010/bootloader.o
dfu_transport_serial_close                        _build/build-tk_kb_18010/dfu_transport_serial.o
                                                  _build/build-tk_kb_18010/bootloader.o
dfu_transport_serial_update_start                 _build/build-tk_kb_18010/dfu_transport_serial.o
                                                  _build/build-tk_kb_18010/bootloader.o
end                                               /usr/lib/gcc/arm-none-eabi/13.2.1/../../../arm-none-eabi/lib/thumb/v7e-m+fp/hard/libnosys.a(sbrk.o)
errno                                             /usr/lib/gcc/arm-none-eabi/13.2.1/../../../arm-none-eabi/lib/thumb/v7e-m+fp/hard/libc.a(libc_a-reent.o)
                                                  /usr/lib/gcc/arm-none-eabi/13.2.1/../../../arm-none-eabi/lib/thumb/v7e-m+fp/hard/libnosys.a(write.o)
                                                  /usr/lib/gcc/arm-none-eabi/13.2.1/../../../arm-none-eabi/lib/thumb/v7e-m+fp/hard/libnosys.a(read.o)
                                                  /usr/lib/gcc/arm-none-eabi/13.2.1/../../../arm-none-eabi/lib/thumb/v7e-m+fp/hard/libnosys.a(lseek.o)
                                                  /usr/lib/gcc/arm-none-eabi/13.2.1/../../../arm-none-eabi/lib/thumb/v7e-m+fp/hard/libnosys.a(close.o)
                                                  /usr/lib/gcc/arm-none-eabi/13.2.1/../../../arm-none-eabi/lib/thumb/v7e-m+fp/hard/libc.a(libc_a-lseekr.o)
                                                  /usr/lib/gcc/arm-none-eabi/13.2.1/../../../arm-none-eabi/lib/thumb/v7e-m+fp/hard/libc.a(libc_a-readr.o)
                                                  /usr/lib/gcc/arm-none-eabi/13.2.1/../../../arm-none-eabi/lib/thumb/v7e-m+fp/hard/libc.a(libc_a-closer.o)
                                                  /usr/lib/gcc/arm-none-eabi/13.2.1/../../../arm-none-eabi/lib/thumb/v7e-m+fp/hard/libc.a(libc_a-sbrkr.o)
                                                  /usr/lib/gcc/arm-none-eabi/13.2.1/../../../arm-none-eabi/lib/thumb/v7e-m+fp/hard/libc.a(libc_a-writer.o)
exit                                              /usr/lib/gcc/arm-none-eabi/13.2.1/../../../arm-none-eabi/lib/thumb/v7e-m+fp/hard/libc.a(libc_a-exit.o)
                                                  /usr/lib/gcc/arm-none-eabi/13.2.1/../../../arm-none-eabi/lib/thumb/v7e-m+fp/hard/crt0.o
fclose                                            /usr/lib/gcc/arm-none-eabi/13.2.1/../../../arm-none-eabi/lib/thumb/v7e-m+fp/hard/libc.a(libc_a-fclose.o)
fflush                                            /usr/lib/gcc/arm-none-eabi/13.2.1/../../../arm-none-eabi/lib/thumb/v7e-m+fp/hard/libc.a(libc_a-fflush.o)
flash_nrf5x_flush                                 _build/build-tk_kb_18010/flash_nrf5x.o
                                                  _build/build-tk_kb_18010/ghostfat.o
                                                  _build/build-tk_kb_18010/dfu_single_bank.o
flash_nrf5x_write                                 _build/build-tk_kb_18010/flash_nrf5x.o
                                                  _build/build-tk_kb_18010/ghostfat.o
                                                  _build/build-tk_kb_18010/dfu_single_bank.o
hardware_init_hook                                /usr/lib/gcc/arm-none-eabi/13.2.1/../../../arm-none-eabi/lib/thumb/v7e-m+fp/hard/crt0.o
hci_mem_pool_close                                _build/build-tk_kb_18010/hci_mem_pool.o
                                                  _build/build-tk_kb_18010/hci_transport.o
hci_mem_pool_open                                 _build/build-tk_kb_18010/hci_mem_pool.o
                                                  _build/build-tk_kb_18010/hci_transport.o
                                                  _build/build-tk_kb_18010/dfu_transport_ble.o
hci_mem_pool_rx_consume                           _build/build-tk_kb_18010/hci_mem_pool.o
                                                  _build/build-tk_kb_18010/hci_transport.o
                                                  _build/build-tk_kb_18010/dfu_transport_ble.o
hci_mem_pool_rx_data_size_set                     _build/build-tk_kb_18010/hci_mem_pool.o
                                                  _build/build-tk_kb_18010/hci_transport.o
                                                  _build/build-tk_kb_18010/dfu_transport_ble.o
hci_mem_pool_rx_extract                           _build/build-tk_kb_18010/hci_mem_pool.o
                                                  _build/build-tk_kb_18010/hci_transport.o
                                                  _build/build-tk_kb_18010/dfu_transport_ble.o
hci_mem_pool_rx_produce                           _build/build-tk_kb_18010/hci_mem_pool.o
                                                  _build/build-tk_kb_18010/hci_transport.o
                                                  _build/build-tk_kb_18010/dfu_transport_ble.o
hci_mem_pool_tx_alloc                             _build/build-tk_kb_18010/hci_mem_pool.o
                                                  _build/build-tk_kb_18010/hci_transport.o
hci_mem_pool_tx_free                              _build/build-tk_kb_18010/hci_mem_pool.o
                                                  _build/build-tk_kb_18010/hci_transport.o
hci_slip_close                                    _build/build-tk_kb_18010/hci_slip.o
                                                  _build/build-tk_kb_18010/hci_transport.o
hci_slip_evt_handler_register                     _build/build-tk_kb_18010/hci_slip.o
                                                  _build/build-tk_kb_18010/hci_transport.o
hci_slip_open                                     _build/build-tk_kb_18010/hci_slip.o
                                                  _build/build-tk_kb_18010/hci_transport.o
hci_slip_rx_buffer_register                       _build/build-tk_kb_18010/hci_slip.o
                                                  _build/build-tk_kb_18010/hci_transport.o
hci_slip_write                                    _build/build-tk_kb_18010/hci_slip.o
                                                  _build/build-tk_kb_18010/hci_transport.o
hci_transport_close                               _build/build-tk_kb_18010/hci_transport.o
                                                  _build/build-tk_kb_18010/dfu_transport_serial.o
hci_transport_evt_handler_reg                     _build/build-tk_kb_18010/hci_transport.o
                                                  _build/build-tk_kb_18010/dfu_transport_serial.o
hci_transport_open                                _build/build-tk_kb_18010/hci_transport.o
                                                  _build/build-tk_kb_18010/dfu_transport_serial.o
hci_transport_pkt_write                           _build/build-tk_kb_18010/hci_transport.o
hci_transport_rx_pkt_consume                      _build/build-tk_kb_18010/hci_transport.o
                                                  _build/build-tk_kb_18010/dfu_transport_serial.o
hci_transport_rx_pkt_extract                      _build/build-tk_kb_18010/hci_transport.o
                                                  _build/build-tk_kb_18010/dfu_transport_serial.o
hci_transport_timeout_handle                      _build/build-tk_kb_18010/hci_transport.o
hci_transport_tx_alloc                            _build/build-tk_kb_18010/hci_transport.o
hci_transport_tx_done_register                    _build/build-tk_kb_18010/hci_transport.o
hci_transport_tx_free                             _build/build-tk_kb_18010/hci_transport.o
indexFile                                         _build/build-tk_kb_18010/ghostfat.o
infoUf2File                                       _build/build-tk_kb_18010/ghostfat.o
is_ota                                            _build/build-tk_kb_18010/main.o
                                                  _build/build-tk_kb_18010/dfu_single_bank.o
                                                  _build/build-tk_kb_18010/bootloader.o
led_pwm_duty_cycle                                _build/build-tk_kb_18010/boards.o
led_pwm_init                                      _build/build-tk_kb_18010/boards.o
led_pwm_teardown                                  _build/build-tk_kb_18010/boards.o
led_state                                         _build/build-tk_kb_18010/boards.o
                                                  _build/build-tk_kb_18010/usb.o
                                                  _build/build-tk_kb_18010/msc_uf2.o
                                                  _build/build-tk_kb_18010/dfu_transport_ble.o
                                                  _build/build-tk_kb_18010/dfu_transport_serial.o
                                                  _build/build-tk_kb_18010/main.o
led_tick                                          _build/build-tk_kb_18010/boards.o
m_boot_settings                                   _build/build-tk_kb_18010/bootloader_settings.o
m_mbr_params_page                                 _build/build-tk_kb_18010/bootloader_settings.o
m_uicr_bootloader_start_address                   _build/build-tk_kb_18010/bootloader_settings.o
m_uicr_mbr_params_page_address                    _build/build-tk_kb_18010/bootloader_settings.o
main                                              _build/build-tk_kb_18010/main.o
                                                  /usr/lib/gcc/arm-none-eabi/13.2.1/../../../arm-none-eabi/lib/thumb/v7e-m+fp/hard/crt0.o
memcmp                                            /usr/lib/gcc/arm-none-eabi/13.2.1/../../../arm-none-eabi/lib/thumb/v7e-m+fp/hard/libc_nano.a(libc_a-memcmp.o)
                                                  _build/build-tk_kb_18010/msc_uf2.o
                                                  _build/build-tk_kb_18010/dfu_transport_ble.o
                                                  _build/build-tk_kb_18010/flash_nrf5x.o
memcpy                                            /usr/lib/gcc/arm-none-eabi/13.2.1/../../../arm-none-eabi/lib/thumb/v7e-m+fp/hard/libc_nano.a(libc_a-memcpy.o)
                                                  _build/build-tk_kb_18010/msc_device.o
                                                  _build/build-tk_kb_18010/usbd_control.o
                                                  _build/build-tk_kb_18010/usbd.o
                                                  _build/build-tk_kb_18010/tusb_fifo.o
                                                  _build/build-tk_kb_18010/ghostfat.o
                                                  _build/build-tk_kb_18010/usb_desc.o
                                                  _build/build-tk_kb_18010/msc_uf2.o
                                                  _build/build-tk_kb_18010/app_scheduler.o
                                                  _build/build-tk_kb_18010/dfu_single_bank.o
                                                  _build/build-tk_kb_18010/dfu_transport_ble.o
                                                  _build/build-tk_kb_18010/flash_nrf5x.o
                                                  _build/build-tk_kb_18010/dfu_init.o
                                                  _build/build-tk_kb_18010/dfu_ble_svc.o
memmove                                           /usr/lib/gcc/arm-none-eabi/13.2.1/../../../arm-none-eabi/lib/thumb/v7e-m+fp/hard/libc_nano.a(libc_a-memmove.o)
                                                  _build/build-tk_kb_18010/msc_device.o
memset                                            /usr/lib/gcc/arm-none-eabi/13.2.1/../../../arm-none-eabi/lib/thumb/v7e-m+fp/hard/libc.a(libc_a-memset.o)
                                                  _build/build-tk_kb_18010/msc_device.o
                                                  _build/build-tk_kb_18010/cdc_device.o
                                                  _build/build-tk_kb_18010/usbd_control.o
                                                  _build/build-tk_kb_18010/usbd.o
                                                  _build/build-tk_kb_18010/dcd_nrf5x.o
                                                  _build/build-tk_kb_18010/ghostfat.o
                                                  _build/build-tk_kb_18010/msc_uf2.o
                                                  _build/build-tk_kb_18010/ble_dis.o
                                                  _build/build-tk_kb_18010/ble_dfu.o
                                                  _build/build-tk_kb_18010/dfu_single_bank.o
                                                  _build/build-tk_kb_18010/dfu_transport_ble.o
                                                  _build/build-tk_kb_18010/bootloader.o
                                                  _build/build-tk_kb_18010/main.o
                                                  /usr/lib/gcc/arm-none-eabi/13.2.1/../../../arm-none-eabi/lib/thumb/v7e-m+fp/hard/libc.a(libc_a-findfp.o)
                                                  /usr/lib/gcc/arm-none-eabi/13.2.1/../../../arm-none-eabi/lib/thumb/v7e-m+fp/hard/crt0.o
mscd_control_xfer_cb                              _build/build-tk_kb_18010/msc_device.o
                                                  _build/build-tk_kb_18010/usbd.o
mscd_init                                         _build/build-tk_kb_18010/msc_device.o
                                                  _build/build-tk_kb_18010/usbd.o
mscd_open                                         _build/build-tk_kb_18010/msc_device.o
                                                  _build/build-tk_kb_18010/usbd.o
mscd_reset                                        _build/build-tk_kb_18010/msc_device.o
                                                  _build/build-tk_kb_18010/usbd.o
mscd_xfer_cb                                      _build/build-tk_kb_18010/msc_device.o
                                                  _build/build-tk_kb_18010/usbd.o
nrf_nvic_state                                    _build/build-tk_kb_18010/app_util_platform.o
                                                  _build/build-tk_kb_18010/main.o
nrfx_nvmc_all_erase                               _build/build-tk_kb_18010/nrfx_nvmc.o
nrfx_nvmc_byte_writable_check                     _build/build-tk_kb_18010/nrfx_nvmc.o
nrfx_nvmc_byte_write                              _build/build-tk_kb_18010/nrfx_nvmc.o
nrfx_nvmc_bytes_write                             _build/build-tk_kb_18010/nrfx_nvmc.o
nrfx_nvmc_flash_page_count_get                    _build/build-tk_kb_18010/nrfx_nvmc.o
nrfx_nvmc_flash_page_size_get                     _build/build-tk_kb_18010/nrfx_nvmc.o
nrfx_nvmc_flash_size_get                          _build/build-tk_kb_18010/nrfx_nvmc.o
nrfx_nvmc_page_erase                              _build/build-tk_kb_18010/nrfx_nvmc.o
                                                  _build/build-tk_kb_18010/dfu_single_bank.o
                                                  _build/build-tk_kb_18010/bootloader.o
                                                  _build/build-tk_kb_18010/flash_nrf5x.o
nrfx_nvmc_page_partial_erase_continue             _build/build-tk_kb_18010/nrfx_nvmc.o
nrfx_nvmc_page_partial_erase_init                 _build/build-tk_kb_18010/nrfx_nvmc.o
nrfx_nvmc_uicr_erase                              _build/build-tk_kb_18010/nrfx_nvmc.o
nrfx_nvmc_word_writable_check                     _build/build-tk_kb_18010/nrfx_nvmc.o
nrfx_nvmc_word_write                              _build/build-tk_kb_18010/nrfx_nvmc.o
                                                  _build/build-tk_kb_18010/bootloader_settings.o
nrfx_nvmc_words_write                             _build/build-tk_kb_18010/nrfx_nvmc.o
                                                  _build/build-tk_kb_18010/bootloader.o
                                                  _build/build-tk_kb_18010/flash_nrf5x.o
nrfx_power_init                                   _build/build-tk_kb_18010/nrfx_power.o
                                                  _build/build-tk_kb_18010/usb.o
nrfx_power_irq_enabled                            _build/build-tk_kb_18010/nrfx_power.o
nrfx_power_pof_disable                            _build/build-tk_kb_18010/nrfx_power.o
nrfx_power_pof_enable                             _build/build-tk_kb_18010/nrfx_power.o
nrfx_power_pof_handler_get                        _build/build-tk_kb_18010/nrfx_power.o
nrfx_power_pof_init                               _build/build-tk_kb_18010/nrfx_power.o
nrfx_power_pof_uninit                             _build/build-tk_kb_18010/nrfx_power.o
nrfx_power_sleepevt_disable                       _build/build-tk_kb_18010/nrfx_power.o
nrfx_power_sleepevt_enable                        _build/build-tk_kb_18010/nrfx_power.o
nrfx_power_sleepevt_init                          _build/build-tk_kb_18010/nrfx_power.o
nrfx_power_sleepevt_uninit                        _build/build-tk_kb_18010/nrfx_power.o
nrfx_power_uninit                                 _build/build-tk_kb_18010/nrfx_power.o
nrfx_power_usb_handler_get                        _build/build-tk_kb_18010/nrfx_power.o
nrfx_power_usbevt_disable                         _build/build-tk_kb_18010/nrfx_power.o
nrfx_power_usbevt_enable                          _build/build-tk_kb_18010/nrfx_power.o
                                                  _build/build-tk_kb_18010/usb.o
nrfx_power_usbevt_init                            _build/build-tk_kb_18010/nrfx_power.o
                                                  _build/build-tk_kb_18010/usb.o
nrfx_power_usbevt_uninit                          _build/build-tk_kb_18010/nrfx_power.o
offset_calculate                                  _build/build-tk_kb_18010/dfu_single_bank.o
padded_memcpy                                     _build/build-tk_kb_18010/ghostfat.o
privilege_level_get                               _build/build-tk_kb_18010/app_util_platform.o
proc_ble                                          _build/build-tk_kb_18010/main.o
proc_sd_task                                      _build/build-tk_kb_18010/main.o
proc_soc                                          _build/build-tk_kb_18010/main.o
pstorage_block_identifier_get                     _build/build-tk_kb_18010/pstorage_raw.o
pstorage_clear                                    _build/build-tk_kb_18010/pstorage_raw.o
                                                  _build/build-tk_kb_18010/dfu_single_bank.o
                                                  _build/build-tk_kb_18010/bootloader.o
pstorage_init                                     _build/build-tk_kb_18010/pstorage_raw.o
                                                  _build/build-tk_kb_18010/bootloader.o
pstorage_register                                 _build/build-tk_kb_18010/pstorage_raw.o
                                                  _build/build-tk_kb_18010/dfu_single_bank.o
                                                  _build/build-tk_kb_18010/bootloader.o
pstorage_store                                    _build/build-tk_kb_18010/pstorage_raw.o
                                                  _build/build-tk_kb_18010/dfu_single_bank.o
                                                  _build/build-tk_kb_18010/bootloader.o
pstorage_sys_event_handler                        _build/build-tk_kb_18010/pstorage_raw.o
                                                  _build/build-tk_kb_18010/main.o
pwm_teardown                                      _build/build-tk_kb_18010/boards.o
rdwr10_validate_cmd                               _build/build-tk_kb_18010/msc_device.o
read_block                                        _build/build-tk_kb_18010/ghostfat.o
                                                  _build/build-tk_kb_18010/msc_uf2.o
rpc_transport_event_handler                       _build/build-tk_kb_18010/dfu_transport_serial.o
send_tx_byte                                      _build/build-tk_kb_18010/hci_slip.o
slip_event_handle                                 _build/build-tk_kb_18010/hci_transport.o
software_init_hook                                /usr/lib/gcc/arm-none-eabi/13.2.1/../../../arm-none-eabi/lib/thumb/v7e-m+fp/hard/crt0.o
strcat                                            /usr/lib/gcc/arm-none-eabi/13.2.1/../../../arm-none-eabi/lib/thumb/v7e-m+fp/hard/libc_nano.a(libc_a-strcat.o)
                                                  _build/build-tk_kb_18010/ghostfat.o
strcpy                                            /usr/lib/gcc/arm-none-eabi/13.2.1/../../../arm-none-eabi/lib/thumb/v7e-m+fp/hard/libc_nano.a(libc_a-strcpy.o)
                                                  /usr/lib/gcc/arm-none-eabi/13.2.1/../../../arm-none-eabi/lib/thumb/v7e-m+fp/hard/libc_nano.a(libc_a-strcat.o)
string_desc_arr                                   _build/build-tk_kb_18010/usb_desc.o
strlen                                            /usr/lib/gcc/arm-none-eabi/13.2.1/../../../arm-none-eabi/lib/thumb/v7e-m+fp/hard/libc_nano.a(libc_a-strlen.o)
                                                  _build/build-tk_kb_18010/ghostfat.o
                                                  _build/build-tk_kb_18010/usb_desc.o
                                                  _build/build-tk_kb_18010/msc_uf2.o
                                                  _build/build-tk_kb_18010/dfu_transport_ble.o
sysconf                                           /usr/lib/gcc/arm-none-eabi/13.2.1/../../../arm-none-eabi/lib/thumb/v7e-m+fp/hard/libc.a(libc_a-sysconf.o)
                                                  /usr/lib/gcc/arm-none-eabi/13.2.1/../../../arm-none-eabi/lib/thumb/v7e-m+fp/hard/libc.a(libc_a-freer.o)
                                                  /usr/lib/gcc/arm-none-eabi/13.2.1/../../../arm-none-eabi/lib/thumb/v7e-m+fp/hard/libc.a(libc_a-mallocr.o)
tu_desc_get_interface_total_len                   _build/build-tk_kb_18010/tusb.o
tu_edpt_bind_driver                               _build/build-tk_kb_18010/tusb.o
                                                  _build/build-tk_kb_18010/usbd.o
tu_edpt_validate                                  _build/build-tk_kb_18010/tusb.o
                                                  _build/build-tk_kb_18010/usbd.o
tu_fifo_advance_read_pointer                      _build/build-tk_kb_18010/tusb_fifo.o
tu_fifo_advance_write_pointer                     _build/build-tk_kb_18010/tusb_fifo.o
tu_fifo_clear                                     _build/build-tk_kb_18010/tusb_fifo.o
                                                  _build/build-tk_kb_18010/cdc_device.o
                                                  _build/build-tk_kb_18010/usbd.o
tu_fifo_config                                    _build/build-tk_kb_18010/tusb_fifo.o
                                                  _build/build-tk_kb_18010/cdc_device.o
tu_fifo_correct_read_pointer                      _build/build-tk_kb_18010/tusb_fifo.o
tu_fifo_count                                     _build/build-tk_kb_18010/tusb_fifo.o
                                                  _build/build-tk_kb_18010/cdc_device.o
tu_fifo_empty                                     _build/build-tk_kb_18010/tusb_fifo.o
                                                  _build/build-tk_kb_18010/cdc_device.o
                                                  _build/build-tk_kb_18010/usbd.o
tu_fifo_full                                      _build/build-tk_kb_18010/tusb_fifo.o
tu_fifo_get_read_info                             _build/build-tk_kb_18010/tusb_fifo.o
tu_fifo_get_write_info                            _build/build-tk_kb_18010/tusb_fifo.o
tu_fifo_overflowed                                _build/build-tk_kb_18010/tusb_fifo.o
tu_fifo_peek                                      _build/build-tk_kb_18010/tusb_fifo.o
                                                  _build/build-tk_kb_18010/cdc_device.o
tu_fifo_peek_n                                    _build/build-tk_kb_18010/tusb_fifo.o
tu_fifo_read                                      _build/build-tk_kb_18010/tusb_fifo.o
                                                  _build/build-tk_kb_18010/usbd.o
tu_fifo_read_n                                    _build/build-tk_kb_18010/tusb_fifo.o
                                                  _build/build-tk_kb_18010/cdc_device.o
tu_fifo_read_n_const_addr_full_words              _build/build-tk_kb_18010/tusb_fifo.o
tu_fifo_remaining                                 _build/build-tk_kb_18010/tusb_fifo.o
                                                  _build/build-tk_kb_18010/cdc_device.o
tu_fifo_set_overwritable                          _build/build-tk_kb_18010/tusb_fifo.o
                                                  _build/build-tk_kb_18010/cdc_device.o
tu_fifo_write                                     _build/build-tk_kb_18010/tusb_fifo.o
                                                  _build/build-tk_kb_18010/usbd.o
tu_fifo_write_n                                   _build/build-tk_kb_18010/tusb_fifo.o
                                                  _build/build-tk_kb_18010/cdc_device.o
tu_fifo_write_n_const_addr_full_words             _build/build-tk_kb_18010/tusb_fifo.o
tud_cdc_line_coding_cb                            _build/build-tk_kb_18010/cdc_device.o
tud_cdc_line_state_cb                             _build/build-tk_kb_18010/cdc_device.o
tud_cdc_n_available                               _build/build-tk_kb_18010/cdc_device.o
                                                  _build/build-tk_kb_18010/hci_slip.o
tud_cdc_n_connected                               _build/build-tk_kb_18010/cdc_device.o
tud_cdc_n_get_line_coding                         _build/build-tk_kb_18010/cdc_device.o
tud_cdc_n_get_line_state                          _build/build-tk_kb_18010/cdc_device.o
tud_cdc_n_peek                                    _build/build-tk_kb_18010/cdc_device.o
tud_cdc_n_read                                    _build/build-tk_kb_18010/cdc_device.o
                                                  _build/build-tk_kb_18010/hci_slip.o
tud_cdc_n_read_flush                              _build/build-tk_kb_18010/cdc_device.o
tud_cdc_n_set_wanted_char                         _build/build-tk_kb_18010/cdc_device.o
tud_cdc_n_write                                   _build/build-tk_kb_18010/cdc_device.o
                                                  _build/build-tk_kb_18010/hci_slip.o
tud_cdc_n_write_available                         _build/build-tk_kb_18010/cdc_device.o
tud_cdc_n_write_clear                             _build/build-tk_kb_18010/cdc_device.o
tud_cdc_n_write_flush                             _build/build-tk_kb_18010/cdc_device.o
                                                  _build/build-tk_kb_18010/bootloader.o
tud_cdc_rx_cb                                     _build/build-tk_kb_18010/hci_slip.o
                                                  _build/build-tk_kb_18010/cdc_device.o
tud_cdc_rx_wanted_cb                              _build/build-tk_kb_18010/cdc_device.o
tud_cdc_send_break_cb                             _build/build-tk_kb_18010/cdc_device.o
tud_cdc_tx_complete_cb                            _build/build-tk_kb_18010/cdc_device.o
tud_connect                                       _build/build-tk_kb_18010/usbd.o
tud_connected                                     _build/build-tk_kb_18010/usbd.o
tud_control_status                                _build/build-tk_kb_18010/usbd_control.o
                                                  _build/build-tk_kb_18010/msc_device.o
                                                  _build/build-tk_kb_18010/cdc_device.o
                                                  _build/build-tk_kb_18010/usbd.o
tud_control_xfer                                  _build/build-tk_kb_18010/usbd_control.o
                                                  _build/build-tk_kb_18010/msc_device.o
                                                  _build/build-tk_kb_18010/cdc_device.o
                                                  _build/build-tk_kb_18010/usbd.o
tud_descriptor_bos_cb                             _build/build-tk_kb_18010/usbd.o
tud_descriptor_configuration_cb                   _build/build-tk_kb_18010/usb_desc.o
                                                  _build/build-tk_kb_18010/usbd.o
tud_descriptor_device_cb                          _build/build-tk_kb_18010/usb_desc.o
                                                  _build/build-tk_kb_18010/usbd.o
tud_descriptor_device_qualifier_cb                _build/build-tk_kb_18010/usbd.o
tud_descriptor_other_speed_configuration_cb       _build/build-tk_kb_18010/usbd.o
tud_descriptor_string_cb                          _build/build-tk_kb_18010/usb_desc.o
                                                  _build/build-tk_kb_18010/usbd.o
tud_disconnect                                    _build/build-tk_kb_18010/usbd.o
tud_init                                          _build/build-tk_kb_18010/usbd.o
                                                  _build/build-tk_kb_18010/tusb.o
tud_inited                                        _build/build-tk_kb_18010/usbd.o
                                                  _build/build-tk_kb_18010/tusb.o
tud_mount_cb                                      _build/build-tk_kb_18010/usb.o
                                                  _build/build-tk_kb_18010/usbd.o
tud_mounted                                       _build/build-tk_kb_18010/usbd.o
                                                  _build/build-tk_kb_18010/cdc_device.o
                                                  _build/build-tk_kb_18010/bootloader.o
tud_msc_capacity_cb                               _build/build-tk_kb_18010/msc_uf2.o
                                                  _build/build-tk_kb_18010/msc_device.o
tud_msc_get_maxlun_cb                             _build/build-tk_kb_18010/msc_device.o
tud_msc_inquiry_cb                                _build/build-tk_kb_18010/msc_uf2.o
                                                  _build/build-tk_kb_18010/msc_device.o
tud_msc_is_writable_cb                            _build/build-tk_kb_18010/msc_device.o
tud_msc_read10_cb                                 _build/build-tk_kb_18010/msc_uf2.o
                                                  _build/build-tk_kb_18010/msc_device.o
tud_msc_read10_complete_cb                        _build/build-tk_kb_18010/msc_device.o
tud_msc_scsi_cb                                   _build/build-tk_kb_18010/msc_uf2.o
                                                  _build/build-tk_kb_18010/msc_device.o
tud_msc_scsi_complete_cb                          _build/build-tk_kb_18010/msc_device.o
tud_msc_set_sense                                 _build/build-tk_kb_18010/msc_device.o
                                                  _build/build-tk_kb_18010/msc_uf2.o
tud_msc_start_stop_cb                             _build/build-tk_kb_18010/msc_uf2.o
                                                  _build/build-tk_kb_18010/msc_device.o
tud_msc_test_unit_ready_cb                        _build/build-tk_kb_18010/msc_uf2.o
                                                  _build/build-tk_kb_18010/msc_device.o
tud_msc_write10_cb                                _build/build-tk_kb_18010/msc_uf2.o
                                                  _build/build-tk_kb_18010/msc_device.o
tud_msc_write10_complete_cb                       _build/build-tk_kb_18010/msc_uf2.o
                                                  _build/build-tk_kb_18010/msc_device.o
tud_remote_wakeup                                 _build/build-tk_kb_18010/usbd.o
tud_resume_cb                                     _build/build-tk_kb_18010/usbd.o
tud_speed_get                                     _build/build-tk_kb_18010/usbd.o
tud_suspend_cb                                    _build/build-tk_kb_18010/usbd.o
tud_suspended                                     _build/build-tk_kb_18010/usbd.o
                                                  _build/build-tk_kb_18010/cdc_device.o
tud_task                                          _build/build-tk_kb_18010/usbd.o
                                                  _build/build-tk_kb_18010/bootloader.o
tud_task_event_ready                              _build/build-tk_kb_18010/usbd.o
tud_umount_cb                                     _build/build-tk_kb_18010/usb.o
                                                  _build/build-tk_kb_18010/usbd.o
tud_vendor_control_xfer_cb                        _build/build-tk_kb_18010/usbd.o
tusb_hal_nrf_power_event                          _build/build-tk_kb_18010/dcd_nrf5x.o
                                                  _build/build-tk_kb_18010/usb.o
                                                  _build/build-tk_kb_18010/main.o
tusb_init                                         _build/build-tk_kb_18010/tusb.o
                                                  _build/build-tk_kb_18010/usb.o
tusb_inited                                       _build/build-tk_kb_18010/tusb.o
                                                  _build/build-tk_kb_18010/usbd.o
                                                  _build/build-tk_kb_18010/bootloader.o
uf2_init                                          _build/build-tk_kb_18010/ghostfat.o
                                                  _build/build-tk_kb_18010/usb.o
usb_desc_init                                     _build/build-tk_kb_18010/usb_desc.o
                                                  _build/build-tk_kb_18010/usb.o
usb_init                                          _build/build-tk_kb_18010/usb.o
                                                  _build/build-tk_kb_18010/main.o
usb_teardown                                      _build/build-tk_kb_18010/usb.o
                                                  _build/build-tk_kb_18010/main.o
usbd_app_driver_get_cb                            _build/build-tk_kb_18010/usbd.o
usbd_control_reset                                _build/build-tk_kb_18010/usbd_control.o
                                                  _build/build-tk_kb_18010/usbd.o
usbd_control_set_complete_callback                _build/build-tk_kb_18010/usbd_control.o
                                                  _build/build-tk_kb_18010/usbd.o
usbd_control_set_request                          _build/build-tk_kb_18010/usbd_control.o
                                                  _build/build-tk_kb_18010/usbd.o
usbd_control_xfer_cb                              _build/build-tk_kb_18010/usbd_control.o
                                                  _build/build-tk_kb_18010/usbd.o
usbd_defer_func                                   _build/build-tk_kb_18010/usbd.o
                                                  _build/build-tk_kb_18010/dcd_nrf5x.o
usbd_edpt_busy                                    _build/build-tk_kb_18010/usbd.o
                                                  _build/build-tk_kb_18010/msc_device.o
usbd_edpt_claim                                   _build/build-tk_kb_18010/usbd.o
                                                  _build/build-tk_kb_18010/cdc_device.o
usbd_edpt_clear_stall                             _build/build-tk_kb_18010/usbd.o
usbd_edpt_close                                   _build/build-tk_kb_18010/usbd.o
usbd_edpt_open                                    _build/build-tk_kb_18010/usbd.o
                                                  _build/build-tk_kb_18010/cdc_device.o
usbd_edpt_release                                 _build/build-tk_kb_18010/usbd.o
                                                  _build/build-tk_kb_18010/cdc_device.o
usbd_edpt_stall                                   _build/build-tk_kb_18010/usbd.o
                                                  _build/build-tk_kb_18010/msc_device.o
usbd_edpt_stalled                                 _build/build-tk_kb_18010/usbd.o
                                                  _build/build-tk_kb_18010/msc_device.o
usbd_edpt_xfer                                    _build/build-tk_kb_18010/usbd.o
                                                  _build/build-tk_kb_18010/msc_device.o
                                                  _build/build-tk_kb_18010/cdc_device.o
                                                  _build/build-tk_kb_18010/usbd_control.o
usbd_edpt_xfer_fifo                               _build/build-tk_kb_18010/usbd.o
usbd_open_edpt_pair                               _build/build-tk_kb_18010/usbd.o
                                                  _build/build-tk_kb_18010/msc_device.o
                                                  _build/build-tk_kb_18010/cdc_device.o
utoa                                              /usr/lib/gcc/arm-none-eabi/13.2.1/../../../arm-none-eabi/lib/thumb/v7e-m+fp/hard/libc_nano.a(libc_a-utoa.o)
                                                  _build/build-tk_kb_18010/ghostfat.o
write_block                                       _build/build-tk_kb_18010/ghostfat.o
                                                  _build/build-tk_kb_18010/msc_uf2.o
